	.text
	.file	"main.bc80b724d1b8b0c7-cgu.0"
	.section	".text._ZN102_$LT$core..str..iter..CharIndices$u20$as$u20$core..iter..traits..double_ended..DoubleEndedIterator$GT$9next_back17hf6bb0367226b6ec8E","ax",@progbits
	.p2align	4, 0x90
	.type	_ZN102_$LT$core..str..iter..CharIndices$u20$as$u20$core..iter..traits..double_ended..DoubleEndedIterator$GT$9next_back17hf6bb0367226b6ec8E,@function
_ZN102_$LT$core..str..iter..CharIndices$u20$as$u20$core..iter..traits..double_ended..DoubleEndedIterator$GT$9next_back17hf6bb0367226b6ec8E:
	.cfi_startproc
	subq	$72, %rsp
	.cfi_def_cfa_offset 80
	movq	%rdi, 16(%rsp)
	callq	_ZN96_$LT$core..str..iter..Chars$u20$as$u20$core..iter..traits..double_ended..DoubleEndedIterator$GT$9next_back17h1331118b863f63d4E
	movq	16(%rsp), %rdi
	movl	%eax, 52(%rsp)
	addq	$16, %rdi
	movq	%rdi, 24(%rsp)
	movl	$1, %eax
	xorl	%ecx, %ecx
	cmpl	$1114112, 52(%rsp)
	cmoveq	%rcx, %rax
	cmpq	$0, %rax
	jne	.LBB0_2
	movq	.L__unnamed_1(%rip), %rcx
	movl	.L__unnamed_1+8(%rip), %eax
	movq	%rcx, 32(%rsp)
	movl	%eax, 40(%rsp)
	jmp	.LBB0_3
.LBB0_2:
	movq	16(%rsp), %rax
	movq	24(%rsp), %rcx
	movl	52(%rsp), %edx
	movl	%edx, 12(%rsp)
	movq	(%rcx), %rcx
	movq	%rcx, (%rsp)
	movq	8(%rax), %rdi
	movq	(%rax), %rsi
	callq	_ZN4core3ptr9const_ptr33_$LT$impl$u20$$BP$const$u20$T$GT$7sub_ptr17h41eddbdd08bba3bcE
	movq	(%rsp), %rcx
	movq	%rax, %rdx
	movl	12(%rsp), %eax
	addq	%rdx, %rcx
	movq	%rcx, 56(%rsp)
	movl	%eax, 64(%rsp)
	movq	56(%rsp), %rcx
	movl	64(%rsp), %eax
	movq	%rcx, 32(%rsp)
	movl	%eax, 40(%rsp)
.LBB0_3:
	movq	32(%rsp), %rax
	movl	40(%rsp), %edx
	addq	$72, %rsp
	.cfi_def_cfa_offset 8
	retq
.Lfunc_end0:
	.size	_ZN102_$LT$core..str..iter..CharIndices$u20$as$u20$core..iter..traits..double_ended..DoubleEndedIterator$GT$9next_back17hf6bb0367226b6ec8E, .Lfunc_end0-_ZN102_$LT$core..str..iter..CharIndices$u20$as$u20$core..iter..traits..double_ended..DoubleEndedIterator$GT$9next_back17hf6bb0367226b6ec8E
	.cfi_endproc

	.section	".text._ZN104_$LT$core..str..pattern..MultiCharEqSearcher$LT$C$GT$$u20$as$u20$core..str..pattern..ReverseSearcher$GT$9next_back17hf9dbc99192f11e89E","ax",@progbits
	.p2align	4, 0x90
	.type	_ZN104_$LT$core..str..pattern..MultiCharEqSearcher$LT$C$GT$$u20$as$u20$core..str..pattern..ReverseSearcher$GT$9next_back17hf9dbc99192f11e89E,@function
_ZN104_$LT$core..str..pattern..MultiCharEqSearcher$LT$C$GT$$u20$as$u20$core..str..pattern..ReverseSearcher$GT$9next_back17hf9dbc99192f11e89E:
	.cfi_startproc
	subq	$72, %rsp
	.cfi_def_cfa_offset 80
	movq	%rsi, 40(%rsp)
	movq	%rdi, 24(%rsp)
	movq	%rdi, 32(%rsp)
	movq	24(%rsi), %rdi
	movq	16(%rsi), %rsi
	callq	_ZN4core3ptr9const_ptr33_$LT$impl$u20$$BP$const$u20$T$GT$7sub_ptr17h41eddbdd08bba3bcE
	movq	40(%rsp), %rdi
	movq	%rax, 48(%rsp)
	addq	$16, %rdi
	callq	_ZN102_$LT$core..str..iter..CharIndices$u20$as$u20$core..iter..traits..double_ended..DoubleEndedIterator$GT$9next_back17hf6bb0367226b6ec8E
	movq	%rax, 56(%rsp)
	movl	%edx, 64(%rsp)
	movl	$1, %eax
	xorl	%ecx, %ecx
	cmpl	$1114112, 64(%rsp)
	cmoveq	%rcx, %rax
	cmpq	$1, %rax
	jne	.LBB1_2
	movq	40(%rsp), %rax
	movq	56(%rsp), %rcx
	movq	%rcx, (%rsp)
	movl	64(%rsp), %ecx
	movl	%ecx, 12(%rsp)
	movq	24(%rax), %rdi
	movq	16(%rax), %rsi
	callq	_ZN4core3ptr9const_ptr33_$LT$impl$u20$$BP$const$u20$T$GT$7sub_ptr17h41eddbdd08bba3bcE
	movq	40(%rsp), %rdi
	movl	12(%rsp), %esi
	movq	%rax, %rcx
	movq	48(%rsp), %rax
	subq	%rcx, %rax
	movq	%rax, 16(%rsp)
	addq	$40, %rdi
	callq	_ZN53_$LT$F$u20$as$u20$core..str..pattern..MultiCharEq$GT$7matches17haab52f5d3238ee4aE
	testb	$1, %al
	jne	.LBB1_4
	jmp	.LBB1_3
.LBB1_2:
	movq	24(%rsp), %rax
	movq	$2, (%rax)
	jmp	.LBB1_6
.LBB1_3:
	movq	24(%rsp), %rax
	movq	(%rsp), %rdx
	movq	16(%rsp), %rsi
	movq	%rdx, %rcx
	addq	%rsi, %rcx
	movq	%rdx, 8(%rax)
	movq	%rcx, 16(%rax)
	movq	$1, (%rax)
	jmp	.LBB1_5
.LBB1_4:
	movq	24(%rsp), %rax
	movq	(%rsp), %rdx
	movq	16(%rsp), %rsi
	movq	%rdx, %rcx
	addq	%rsi, %rcx
	movq	%rdx, 8(%rax)
	movq	%rcx, 16(%rax)
	movq	$0, (%rax)
.LBB1_5:
	jmp	.LBB1_6
.LBB1_6:
	movq	32(%rsp), %rax
	addq	$72, %rsp
	.cfi_def_cfa_offset 8
	retq
.Lfunc_end1:
	.size	_ZN104_$LT$core..str..pattern..MultiCharEqSearcher$LT$C$GT$$u20$as$u20$core..str..pattern..ReverseSearcher$GT$9next_back17hf9dbc99192f11e89E, .Lfunc_end1-_ZN104_$LT$core..str..pattern..MultiCharEqSearcher$LT$C$GT$$u20$as$u20$core..str..pattern..ReverseSearcher$GT$9next_back17hf9dbc99192f11e89E
	.cfi_endproc

	.section	".text._ZN106_$LT$core..slice..iter..Iter$LT$T$GT$$u20$as$u20$core..iter..traits..double_ended..DoubleEndedIterator$GT$9next_back17h378814b8c98f41a0E","ax",@progbits
	.p2align	4, 0x90
	.type	_ZN106_$LT$core..slice..iter..Iter$LT$T$GT$$u20$as$u20$core..iter..traits..double_ended..DoubleEndedIterator$GT$9next_back17h378814b8c98f41a0E,@function
_ZN106_$LT$core..slice..iter..Iter$LT$T$GT$$u20$as$u20$core..iter..traits..double_ended..DoubleEndedIterator$GT$9next_back17h378814b8c98f41a0E:
	.cfi_startproc
	movq	%rdi, -56(%rsp)
	movq	-56(%rsp), %rax
	movq	8(%rax), %rcx
	movq	%rcx, -32(%rsp)
	movq	(%rax), %rax
	cmpq	-32(%rsp), %rax
	sete	%al
	andb	$1, %al
	movb	%al, -33(%rsp)
	testb	$1, -33(%rsp)
	jne	.LBB2_4
	movq	-56(%rsp), %rax
	movq	8(%rax), %rcx
	addq	$-1, %rcx
	movq	%rcx, -8(%rsp)
	movq	-8(%rsp), %rcx
	movq	%rcx, 8(%rax)
	movq	8(%rax), %rax
	movq	%rax, -16(%rsp)
	movq	-16(%rsp), %rax
	movq	%rax, -24(%rsp)
	movq	-24(%rsp), %rax
	movq	%rax, -48(%rsp)
	jmp	.LBB2_5
.LBB2_4:
	movq	$0, -48(%rsp)
.LBB2_5:
	movq	-48(%rsp), %rax
	retq
.Lfunc_end2:
	.size	_ZN106_$LT$core..slice..iter..Iter$LT$T$GT$$u20$as$u20$core..iter..traits..double_ended..DoubleEndedIterator$GT$9next_back17h378814b8c98f41a0E, .Lfunc_end2-_ZN106_$LT$core..slice..iter..Iter$LT$T$GT$$u20$as$u20$core..iter..traits..double_ended..DoubleEndedIterator$GT$9next_back17h378814b8c98f41a0E
	.cfi_endproc

	.section	".text._ZN106_$LT$core..str..pattern..CharPredicateSearcher$LT$F$GT$$u20$as$u20$core..str..pattern..ReverseSearcher$GT$16next_reject_back17haba544a4e997c033E","ax",@progbits
	.p2align	4, 0x90
	.type	_ZN106_$LT$core..str..pattern..CharPredicateSearcher$LT$F$GT$$u20$as$u20$core..str..pattern..ReverseSearcher$GT$16next_reject_back17haba544a4e997c033E,@function
_ZN106_$LT$core..str..pattern..CharPredicateSearcher$LT$F$GT$$u20$as$u20$core..str..pattern..ReverseSearcher$GT$16next_reject_back17haba544a4e997c033E:
	.cfi_startproc
	subq	$72, %rsp
	.cfi_def_cfa_offset 80
	movq	%rsi, 8(%rsp)
	movq	%rdi, 16(%rsp)
	movq	%rdi, 24(%rsp)
.LBB3_1:
	movq	8(%rsp), %rsi
	leaq	32(%rsp), %rdi
	callq	_ZN104_$LT$core..str..pattern..MultiCharEqSearcher$LT$C$GT$$u20$as$u20$core..str..pattern..ReverseSearcher$GT$9next_back17hf9dbc99192f11e89E
	movq	32(%rsp), %rax
	movq	%rax, (%rsp)
	testq	%rax, %rax
	je	.LBB3_5
	jmp	.LBB3_7
.LBB3_7:
	movq	(%rsp), %rax
	subq	$1, %rax
	je	.LBB3_3
	jmp	.LBB3_8
.LBB3_8:
	jmp	.LBB3_4
	.cfi_def_cfa_offset 8
	ud2
.LBB3_3:
	.cfi_def_cfa_offset 80
	movq	16(%rsp), %rax
	movq	40(%rsp), %rdx
	movq	48(%rsp), %rcx
	movq	%rdx, 56(%rsp)
	movq	%rcx, 64(%rsp)
	movq	56(%rsp), %rdx
	movq	64(%rsp), %rcx
	movq	%rdx, 8(%rax)
	movq	%rcx, 16(%rax)
	movq	$1, (%rax)
	jmp	.LBB3_6
.LBB3_4:
	movq	16(%rsp), %rax
	movq	$0, (%rax)
	jmp	.LBB3_6
.LBB3_5:
	jmp	.LBB3_1
.LBB3_6:
	movq	24(%rsp), %rax
	addq	$72, %rsp
	.cfi_def_cfa_offset 8
	retq
.Lfunc_end3:
	.size	_ZN106_$LT$core..str..pattern..CharPredicateSearcher$LT$F$GT$$u20$as$u20$core..str..pattern..ReverseSearcher$GT$16next_reject_back17haba544a4e997c033E, .Lfunc_end3-_ZN106_$LT$core..str..pattern..CharPredicateSearcher$LT$F$GT$$u20$as$u20$core..str..pattern..ReverseSearcher$GT$16next_reject_back17haba544a4e997c033E
	.cfi_endproc

	.section	.text._ZN3std10sys_common9backtrace28__rust_begin_short_backtrace17h66d154dae4491693E,"ax",@progbits
	.p2align	4, 0x90
	.type	_ZN3std10sys_common9backtrace28__rust_begin_short_backtrace17h66d154dae4491693E,@function
_ZN3std10sys_common9backtrace28__rust_begin_short_backtrace17h66d154dae4491693E:
	.cfi_startproc
	pushq	%rax
	.cfi_def_cfa_offset 16
	callq	_ZN4core3ops8function6FnOnce9call_once17hedecc42a571629d6E
	#APP
	#NO_APP
	popq	%rax
	.cfi_def_cfa_offset 8
	retq
.Lfunc_end4:
	.size	_ZN3std10sys_common9backtrace28__rust_begin_short_backtrace17h66d154dae4491693E, .Lfunc_end4-_ZN3std10sys_common9backtrace28__rust_begin_short_backtrace17h66d154dae4491693E
	.cfi_endproc

	.section	.text._ZN3std2io5error14repr_bitpacked11decode_repr17h6e7a15337a8027bfE,"ax",@progbits
	.p2align	4, 0x90
	.type	_ZN3std2io5error14repr_bitpacked11decode_repr17h6e7a15337a8027bfE,@function
_ZN3std2io5error14repr_bitpacked11decode_repr17h6e7a15337a8027bfE:
.Lfunc_begin0:
	.cfi_startproc
	.cfi_personality 155, DW.ref.rust_eh_personality
	.cfi_lsda 27, .Lexception0
	subq	$136, %rsp
	.cfi_def_cfa_offset 144
	movq	%rsi, 24(%rsp)
	movq	%rdi, 32(%rsp)
	movq	%rdi, 40(%rsp)
	movb	$1, 95(%rsp)
	movq	%rsi, 56(%rsp)
	movq	56(%rsp), %rax
	andl	$3, %eax
	movq	%rax, 48(%rsp)
	subq	$3, %rax
	ja	.LBB5_1
	movq	48(%rsp), %rax
	leaq	.LJTI5_0(%rip), %rcx
	movslq	(%rcx,%rax,4), %rax
	addq	%rcx, %rax
	jmpq	*%rax
.LBB5_1:
.Ltmp4:
	leaq	.L__unnamed_2(%rip), %rdi
	leaq	.L__unnamed_3(%rip), %rdx
	movq	_ZN4core9panicking5panic17h8ddd58dc57c2dc00E@GOTPCREL(%rip), %rax
	movl	$40, %esi
	callq	*%rax
.Ltmp5:
	jmp	.LBB5_15
.LBB5_2:
	movq	32(%rsp), %rax
	movq	56(%rsp), %rcx
	sarq	$32, %rcx
	movl	%ecx, 4(%rax)
	movb	$0, (%rax)
	jmp	.LBB5_6
.LBB5_3:
	movl	60(%rsp), %edi
.Ltmp2:
	callq	_ZN3std2io5error14repr_bitpacked14kind_from_prim17h889749298b64f132E
.Ltmp3:
	movb	%al, 23(%rsp)
	jmp	.LBB5_9
.LBB5_4:
	movq	32(%rsp), %rax
	movq	24(%rsp), %rcx
	movq	%rcx, 72(%rsp)
	movq	%rcx, 8(%rax)
	movb	$2, (%rax)
	jmp	.LBB5_6
.LBB5_5:
	movq	24(%rsp), %rax
	decq	%rax
	movq	%rax, 128(%rsp)
	movq	128(%rsp), %rax
	movq	%rax, 104(%rsp)
	movq	104(%rsp), %rax
	movq	%rax, 96(%rsp)
	movq	96(%rsp), %rax
	movb	$0, 95(%rsp)
	movq	%rax, 80(%rsp)
	movq	80(%rsp), %rdi
.Ltmp0:
	callq	_ZN78_$LT$std..io..error..repr_bitpacked..Repr$u20$as$u20$core..ops..drop..Drop$GT$4drop28_$u7b$$u7b$closure$u7d$$u7d$17h748b02a7de8bbcb2E
.Ltmp1:
	movq	%rax, 8(%rsp)
	jmp	.LBB5_14
.LBB5_6:
	jmp	.LBB5_13
.LBB5_7:
	testb	$1, 95(%rsp)
	jne	.LBB5_17
	jmp	.LBB5_16
.LBB5_8:
.Ltmp6:
	movq	%rax, %rcx
	movl	%edx, %eax
	movq	%rcx, 112(%rsp)
	movl	%eax, 120(%rsp)
	jmp	.LBB5_7
.LBB5_9:
	movb	23(%rsp), %al
	movb	%al, 71(%rsp)
	movl	$1, %eax
	xorl	%ecx, %ecx
	cmpb	$41, 71(%rsp)
	cmoveq	%rcx, %rax
	cmpq	$0, %rax
	jne	.LBB5_11
	callq	_ZN4core4hint21unreachable_unchecked18precondition_check17h841dfdd43017a8e5E
	jmp	.LBB5_12
.LBB5_11:
	movq	32(%rsp), %rax
	movb	71(%rsp), %cl
	movb	%cl, 1(%rax)
	movb	$1, (%rax)
	jmp	.LBB5_6
.LBB5_12:
	ud2
.LBB5_13:
	movq	40(%rsp), %rax
	addq	$136, %rsp
	.cfi_def_cfa_offset 8
	retq
.LBB5_14:
	.cfi_def_cfa_offset 144
	movq	32(%rsp), %rax
	movq	8(%rsp), %rcx
	movq	%rcx, 8(%rax)
	movb	$3, (%rax)
	jmp	.LBB5_13
.LBB5_15:
	ud2
.LBB5_16:
	movq	112(%rsp), %rdi
	callq	_Unwind_Resume@PLT
.LBB5_17:
	jmp	.LBB5_16
.Lfunc_end5:
	.size	_ZN3std2io5error14repr_bitpacked11decode_repr17h6e7a15337a8027bfE, .Lfunc_end5-_ZN3std2io5error14repr_bitpacked11decode_repr17h6e7a15337a8027bfE
	.cfi_endproc
	.section	.rodata._ZN3std2io5error14repr_bitpacked11decode_repr17h6e7a15337a8027bfE,"a",@progbits
	.p2align	2, 0x0
.LJTI5_0:
	.long	.LBB5_4-.LJTI5_0
	.long	.LBB5_5-.LJTI5_0
	.long	.LBB5_2-.LJTI5_0
	.long	.LBB5_3-.LJTI5_0
	.section	.gcc_except_table._ZN3std2io5error14repr_bitpacked11decode_repr17h6e7a15337a8027bfE,"a",@progbits
	.p2align	2, 0x0
GCC_except_table5:
.Lexception0:
	.byte	255
	.byte	255
	.byte	1
	.uleb128 .Lcst_end0-.Lcst_begin0
.Lcst_begin0:
	.uleb128 .Ltmp4-.Lfunc_begin0
	.uleb128 .Ltmp1-.Ltmp4
	.uleb128 .Ltmp6-.Lfunc_begin0
	.byte	0
	.uleb128 .Ltmp1-.Lfunc_begin0
	.uleb128 .Lfunc_end5-.Ltmp1
	.byte	0
	.byte	0
.Lcst_end0:
	.p2align	2, 0x0

	.section	.text._ZN3std2io5error14repr_bitpacked14kind_from_prim17h889749298b64f132E,"ax",@progbits
	.p2align	4, 0x90
	.type	_ZN3std2io5error14repr_bitpacked14kind_from_prim17h889749298b64f132E,@function
_ZN3std2io5error14repr_bitpacked14kind_from_prim17h889749298b64f132E:
	.cfi_startproc
	movl	%edi, -8(%rsp)
	cmpl	$0, -8(%rsp)
	jne	.LBB6_2
	movb	$0, -1(%rsp)
	jmp	.LBB6_3
.LBB6_2:
	cmpl	$1, -8(%rsp)
	je	.LBB6_4
	jmp	.LBB6_5
.LBB6_3:
	movb	-1(%rsp), %al
	retq
.LBB6_4:
	movb	$1, -1(%rsp)
	jmp	.LBB6_3
.LBB6_5:
	cmpl	$2, -8(%rsp)
	jne	.LBB6_7
	movb	$2, -1(%rsp)
	jmp	.LBB6_3
.LBB6_7:
	cmpl	$3, -8(%rsp)
	jne	.LBB6_9
	movb	$3, -1(%rsp)
	jmp	.LBB6_3
.LBB6_9:
	cmpl	$4, -8(%rsp)
	jne	.LBB6_11
	movb	$4, -1(%rsp)
	jmp	.LBB6_3
.LBB6_11:
	cmpl	$5, -8(%rsp)
	jne	.LBB6_13
	movb	$5, -1(%rsp)
	jmp	.LBB6_3
.LBB6_13:
	cmpl	$6, -8(%rsp)
	jne	.LBB6_15
	movb	$6, -1(%rsp)
	jmp	.LBB6_3
.LBB6_15:
	cmpl	$7, -8(%rsp)
	jne	.LBB6_17
	movb	$7, -1(%rsp)
	jmp	.LBB6_3
.LBB6_17:
	cmpl	$8, -8(%rsp)
	jne	.LBB6_19
	movb	$8, -1(%rsp)
	jmp	.LBB6_3
.LBB6_19:
	cmpl	$9, -8(%rsp)
	jne	.LBB6_21
	movb	$9, -1(%rsp)
	jmp	.LBB6_3
.LBB6_21:
	cmpl	$10, -8(%rsp)
	jne	.LBB6_23
	movb	$10, -1(%rsp)
	jmp	.LBB6_3
.LBB6_23:
	cmpl	$11, -8(%rsp)
	jne	.LBB6_25
	movb	$11, -1(%rsp)
	jmp	.LBB6_3
.LBB6_25:
	cmpl	$12, -8(%rsp)
	jne	.LBB6_27
	movb	$12, -1(%rsp)
	jmp	.LBB6_3
.LBB6_27:
	cmpl	$13, -8(%rsp)
	jne	.LBB6_29
	movb	$13, -1(%rsp)
	jmp	.LBB6_3
.LBB6_29:
	cmpl	$14, -8(%rsp)
	jne	.LBB6_31
	movb	$14, -1(%rsp)
	jmp	.LBB6_3
.LBB6_31:
	cmpl	$15, -8(%rsp)
	jne	.LBB6_33
	movb	$15, -1(%rsp)
	jmp	.LBB6_3
.LBB6_33:
	cmpl	$16, -8(%rsp)
	jne	.LBB6_35
	movb	$16, -1(%rsp)
	jmp	.LBB6_3
.LBB6_35:
	cmpl	$17, -8(%rsp)
	jne	.LBB6_37
	movb	$17, -1(%rsp)
	jmp	.LBB6_3
.LBB6_37:
	cmpl	$18, -8(%rsp)
	jne	.LBB6_39
	movb	$18, -1(%rsp)
	jmp	.LBB6_3
.LBB6_39:
	cmpl	$19, -8(%rsp)
	jne	.LBB6_41
	movb	$19, -1(%rsp)
	jmp	.LBB6_3
.LBB6_41:
	cmpl	$20, -8(%rsp)
	jne	.LBB6_43
	movb	$20, -1(%rsp)
	jmp	.LBB6_3
.LBB6_43:
	cmpl	$21, -8(%rsp)
	jne	.LBB6_45
	movb	$21, -1(%rsp)
	jmp	.LBB6_3
.LBB6_45:
	cmpl	$22, -8(%rsp)
	jne	.LBB6_47
	movb	$22, -1(%rsp)
	jmp	.LBB6_3
.LBB6_47:
	cmpl	$23, -8(%rsp)
	jne	.LBB6_49
	movb	$23, -1(%rsp)
	jmp	.LBB6_3
.LBB6_49:
	cmpl	$24, -8(%rsp)
	jne	.LBB6_51
	movb	$24, -1(%rsp)
	jmp	.LBB6_3
.LBB6_51:
	cmpl	$25, -8(%rsp)
	jne	.LBB6_53
	movb	$25, -1(%rsp)
	jmp	.LBB6_3
.LBB6_53:
	cmpl	$26, -8(%rsp)
	jne	.LBB6_55
	movb	$26, -1(%rsp)
	jmp	.LBB6_3
.LBB6_55:
	cmpl	$27, -8(%rsp)
	jne	.LBB6_57
	movb	$27, -1(%rsp)
	jmp	.LBB6_3
.LBB6_57:
	cmpl	$28, -8(%rsp)
	jne	.LBB6_59
	movb	$28, -1(%rsp)
	jmp	.LBB6_3
.LBB6_59:
	cmpl	$29, -8(%rsp)
	jne	.LBB6_61
	movb	$29, -1(%rsp)
	jmp	.LBB6_3
.LBB6_61:
	cmpl	$30, -8(%rsp)
	jne	.LBB6_63
	movb	$30, -1(%rsp)
	jmp	.LBB6_3
.LBB6_63:
	cmpl	$31, -8(%rsp)
	jne	.LBB6_65
	movb	$31, -1(%rsp)
	jmp	.LBB6_3
.LBB6_65:
	cmpl	$32, -8(%rsp)
	jne	.LBB6_67
	movb	$32, -1(%rsp)
	jmp	.LBB6_3
.LBB6_67:
	cmpl	$33, -8(%rsp)
	jne	.LBB6_69
	movb	$33, -1(%rsp)
	jmp	.LBB6_3
.LBB6_69:
	cmpl	$34, -8(%rsp)
	jne	.LBB6_71
	movb	$34, -1(%rsp)
	jmp	.LBB6_3
.LBB6_71:
	cmpl	$35, -8(%rsp)
	jne	.LBB6_73
	movb	$35, -1(%rsp)
	jmp	.LBB6_3
.LBB6_73:
	cmpl	$39, -8(%rsp)
	jne	.LBB6_75
	movb	$39, -1(%rsp)
	jmp	.LBB6_3
.LBB6_75:
	cmpl	$37, -8(%rsp)
	jne	.LBB6_77
	movb	$37, -1(%rsp)
	jmp	.LBB6_3
.LBB6_77:
	cmpl	$36, -8(%rsp)
	jne	.LBB6_79
	movb	$36, -1(%rsp)
	jmp	.LBB6_3
.LBB6_79:
	cmpl	$38, -8(%rsp)
	jne	.LBB6_81
	movb	$38, -1(%rsp)
	jmp	.LBB6_3
.LBB6_81:
	cmpl	$40, -8(%rsp)
	jne	.LBB6_83
	movb	$40, -1(%rsp)
	jmp	.LBB6_3
.LBB6_83:
	movb	$41, -1(%rsp)
	jmp	.LBB6_3
.Lfunc_end6:
	.size	_ZN3std2io5error14repr_bitpacked14kind_from_prim17h889749298b64f132E, .Lfunc_end6-_ZN3std2io5error14repr_bitpacked14kind_from_prim17h889749298b64f132E
	.cfi_endproc

	.section	.text._ZN3std2rt10lang_start17hec1f1a6eabee3f1fE,"ax",@progbits
	.hidden	_ZN3std2rt10lang_start17hec1f1a6eabee3f1fE
	.globl	_ZN3std2rt10lang_start17hec1f1a6eabee3f1fE
	.p2align	4, 0x90
	.type	_ZN3std2rt10lang_start17hec1f1a6eabee3f1fE,@function
_ZN3std2rt10lang_start17hec1f1a6eabee3f1fE:
	.cfi_startproc
	subq	$24, %rsp
	.cfi_def_cfa_offset 32
	movl	%ecx, %eax
	movq	%rdx, %rcx
	movq	%rsi, %rdx
	movq	%rdi, 16(%rsp)
	leaq	16(%rsp), %rdi
	leaq	.L__unnamed_4(%rip), %rsi
	movzbl	%al, %r8d
	callq	*_ZN3std2rt19lang_start_internal17h103c42a9c4e95084E@GOTPCREL(%rip)
	movq	%rax, 8(%rsp)
	movq	8(%rsp), %rax
	addq	$24, %rsp
	.cfi_def_cfa_offset 8
	retq
.Lfunc_end7:
	.size	_ZN3std2rt10lang_start17hec1f1a6eabee3f1fE, .Lfunc_end7-_ZN3std2rt10lang_start17hec1f1a6eabee3f1fE
	.cfi_endproc

	.section	".text._ZN3std2rt10lang_start28_$u7b$$u7b$closure$u7d$$u7d$17h65457686beb1758fE","ax",@progbits
	.p2align	4, 0x90
	.type	_ZN3std2rt10lang_start28_$u7b$$u7b$closure$u7d$$u7d$17h65457686beb1758fE,@function
_ZN3std2rt10lang_start28_$u7b$$u7b$closure$u7d$$u7d$17h65457686beb1758fE:
	.cfi_startproc
	pushq	%rax
	.cfi_def_cfa_offset 16
	movq	(%rdi), %rdi
	callq	_ZN3std10sys_common9backtrace28__rust_begin_short_backtrace17h66d154dae4491693E
	callq	_ZN54_$LT$$LP$$RP$$u20$as$u20$std..process..Termination$GT$6report17h3237b4cc4f588bd4E
	movb	%al, 7(%rsp)
	movzbl	7(%rsp), %eax
	popq	%rcx
	.cfi_def_cfa_offset 8
	retq
.Lfunc_end8:
	.size	_ZN3std2rt10lang_start28_$u7b$$u7b$closure$u7d$$u7d$17h65457686beb1758fE, .Lfunc_end8-_ZN3std2rt10lang_start28_$u7b$$u7b$closure$u7d$$u7d$17h65457686beb1758fE
	.cfi_endproc

	.section	".text._ZN44_$LT$$RF$T$u20$as$u20$core..fmt..Display$GT$3fmt17hae37bc246d0e5b6eE","ax",@progbits
	.p2align	4, 0x90
	.type	_ZN44_$LT$$RF$T$u20$as$u20$core..fmt..Display$GT$3fmt17hae37bc246d0e5b6eE,@function
_ZN44_$LT$$RF$T$u20$as$u20$core..fmt..Display$GT$3fmt17hae37bc246d0e5b6eE:
	.cfi_startproc
	pushq	%rax
	.cfi_def_cfa_offset 16
	movq	(%rdi), %rdi
	callq	*_ZN43_$LT$char$u20$as$u20$core..fmt..Display$GT$3fmt17hb830de1969c9fc38E@GOTPCREL(%rip)
	andb	$1, %al
	movzbl	%al, %eax
	popq	%rcx
	.cfi_def_cfa_offset 8
	retq
.Lfunc_end9:
	.size	_ZN44_$LT$$RF$T$u20$as$u20$core..fmt..Display$GT$3fmt17hae37bc246d0e5b6eE, .Lfunc_end9-_ZN44_$LT$$RF$T$u20$as$u20$core..fmt..Display$GT$3fmt17hae37bc246d0e5b6eE
	.cfi_endproc

	.section	".text._ZN49_$LT$F$u20$as$u20$core..str..pattern..Pattern$GT$13into_searcher17h50d9af922b8596e6E","ax",@progbits
	.p2align	4, 0x90
	.type	_ZN49_$LT$F$u20$as$u20$core..str..pattern..Pattern$GT$13into_searcher17h50d9af922b8596e6E,@function
_ZN49_$LT$F$u20$as$u20$core..str..pattern..Pattern$GT$13into_searcher17h50d9af922b8596e6E:
	.cfi_startproc
	subq	$136, %rsp
	.cfi_def_cfa_offset 144
	movq	%rdi, %rax
	movq	%rax, 8(%rsp)
	movq	%rsi, 120(%rsp)
	movq	%rdx, 128(%rsp)
	movq	%rsi, 112(%rsp)
	movq	%rsi, %rax
	addq	%rdx, %rax
	movq	112(%rsp), %rcx
	movq	%rcx, 96(%rsp)
	movq	%rax, 104(%rsp)
	movq	96(%rsp), %rcx
	movq	104(%rsp), %rax
	movq	%rcx, 80(%rsp)
	movq	%rax, 88(%rsp)
	movq	$0, 72(%rsp)
	movq	80(%rsp), %rcx
	movq	88(%rsp), %rax
	movq	%rcx, 56(%rsp)
	movq	%rax, 64(%rsp)
	movq	%rsi, 16(%rsp)
	movq	%rdx, 24(%rsp)
	movq	56(%rsp), %rax
	movq	%rax, 32(%rsp)
	movq	64(%rsp), %rax
	movq	%rax, 40(%rsp)
	movq	72(%rsp), %rax
	movq	%rax, 48(%rsp)
	leaq	16(%rsp), %rsi
	movl	$40, %edx
	callq	memcpy@PLT
	movq	8(%rsp), %rax
	addq	$136, %rsp
	.cfi_def_cfa_offset 8
	retq
.Lfunc_end10:
	.size	_ZN49_$LT$F$u20$as$u20$core..str..pattern..Pattern$GT$13into_searcher17h50d9af922b8596e6E, .Lfunc_end10-_ZN49_$LT$F$u20$as$u20$core..str..pattern..Pattern$GT$13into_searcher17h50d9af922b8596e6E
	.cfi_endproc

	.section	".text._ZN49_$LT$isize$u20$as$u20$core..iter..range..Step$GT$17forward_unchecked17h0626855b604c49d2E","ax",@progbits
	.p2align	4, 0x90
	.type	_ZN49_$LT$isize$u20$as$u20$core..iter..range..Step$GT$17forward_unchecked17h0626855b604c49d2E,@function
_ZN49_$LT$isize$u20$as$u20$core..iter..range..Step$GT$17forward_unchecked17h0626855b604c49d2E:
	.cfi_startproc
	subq	$40, %rsp
	.cfi_def_cfa_offset 48
	addq	%rsi, %rdi
	movq	%rdi, 8(%rsp)
	seto	%al
	cmpq	$0, %rsi
	setl	%cl
	xorb	%cl, %al
	andb	$1, %al
	movb	%al, 39(%rsp)
	testb	$1, 39(%rsp)
	jne	.LBB11_2
	movq	8(%rsp), %rax
	movq	%rax, 24(%rsp)
	movq	$1, 16(%rsp)
	movq	24(%rsp), %rax
	addq	$40, %rsp
	.cfi_def_cfa_offset 8
	retq
.LBB11_2:
	.cfi_def_cfa_offset 48
	movq	.L__unnamed_5(%rip), %rcx
	movq	.L__unnamed_5+8(%rip), %rax
	movq	%rcx, 16(%rsp)
	movq	%rax, 24(%rsp)
	callq	_ZN4core4hint21unreachable_unchecked18precondition_check17h841dfdd43017a8e5E
	ud2
.Lfunc_end11:
	.size	_ZN49_$LT$isize$u20$as$u20$core..iter..range..Step$GT$17forward_unchecked17h0626855b604c49d2E, .Lfunc_end11-_ZN49_$LT$isize$u20$as$u20$core..iter..range..Step$GT$17forward_unchecked17h0626855b604c49d2E
	.cfi_endproc

	.section	".text._ZN49_$LT$usize$u20$as$u20$core..iter..range..Step$GT$17forward_unchecked17h0905d2922015fbc1E","ax",@progbits
	.p2align	4, 0x90
	.type	_ZN49_$LT$usize$u20$as$u20$core..iter..range..Step$GT$17forward_unchecked17h0905d2922015fbc1E,@function
_ZN49_$LT$usize$u20$as$u20$core..iter..range..Step$GT$17forward_unchecked17h0905d2922015fbc1E:
	.cfi_startproc
	movq	%rdi, %rax
	addq	%rsi, %rax
	retq
.Lfunc_end12:
	.size	_ZN49_$LT$usize$u20$as$u20$core..iter..range..Step$GT$17forward_unchecked17h0905d2922015fbc1E, .Lfunc_end12-_ZN49_$LT$usize$u20$as$u20$core..iter..range..Step$GT$17forward_unchecked17h0905d2922015fbc1E
	.cfi_endproc

	.section	".text._ZN49_$LT$usize$u20$as$u20$core..iter..range..Step$GT$18backward_unchecked17h6d0ac0f805b42757E","ax",@progbits
	.p2align	4, 0x90
	.type	_ZN49_$LT$usize$u20$as$u20$core..iter..range..Step$GT$18backward_unchecked17h6d0ac0f805b42757E,@function
_ZN49_$LT$usize$u20$as$u20$core..iter..range..Step$GT$18backward_unchecked17h6d0ac0f805b42757E:
	.cfi_startproc
	movq	%rdi, %rax
	subq	%rsi, %rax
	retq
.Lfunc_end13:
	.size	_ZN49_$LT$usize$u20$as$u20$core..iter..range..Step$GT$18backward_unchecked17h6d0ac0f805b42757E, .Lfunc_end13-_ZN49_$LT$usize$u20$as$u20$core..iter..range..Step$GT$18backward_unchecked17h6d0ac0f805b42757E
	.cfi_endproc

	.section	.text._ZN4core10intrinsics23is_aligned_and_not_null17hd119284fbc89f314E,"ax",@progbits
	.p2align	4, 0x90
	.type	_ZN4core10intrinsics23is_aligned_and_not_null17hd119284fbc89f314E,@function
_ZN4core10intrinsics23is_aligned_and_not_null17hd119284fbc89f314E:
	.cfi_startproc
	subq	$88, %rsp
	.cfi_def_cfa_offset 96
	movq	%rdi, 8(%rsp)
	movq	%rsi, 16(%rsp)
	cmpq	$0, %rdi
	jne	.LBB14_2
	movb	$0, 31(%rsp)
	jmp	.LBB14_3
.LBB14_2:
	movq	16(%rsp), %rcx
	movq	%rcx, %rax
	shrq	%rax
	movabsq	$6148914691236517205, %rdx
	andq	%rdx, %rax
	subq	%rax, %rcx
	movabsq	$3689348814741910323, %rdx
	movq	%rcx, %rax
	andq	%rdx, %rax
	shrq	$2, %rcx
	andq	%rdx, %rcx
	addq	%rcx, %rax
	movq	%rax, %rcx
	shrq	$4, %rcx
	addq	%rcx, %rax
	movabsq	$1085102592571150095, %rcx
	andq	%rcx, %rax
	movabsq	$72340172838076673, %rcx
	imulq	%rcx, %rax
	shrq	$56, %rax
	movq	%rax, 80(%rsp)
	movq	80(%rsp), %rax
	cmpl	$1, %eax
	je	.LBB14_4
	jmp	.LBB14_5
.LBB14_3:
	movb	31(%rsp), %al
	andb	$1, %al
	movzbl	%al, %eax
	addq	$88, %rsp
	.cfi_def_cfa_offset 8
	retq
.LBB14_4:
	.cfi_def_cfa_offset 96
	movq	8(%rsp), %rax
	movq	16(%rsp), %rcx
	subq	$1, %rcx
	andq	%rcx, %rax
	cmpq	$0, %rax
	sete	%al
	andb	$1, %al
	movb	%al, 31(%rsp)
	jmp	.LBB14_3
.LBB14_5:
	leaq	.L__unnamed_6(%rip), %rax
	movq	%rax, 32(%rsp)
	movq	$1, 40(%rsp)
	movq	.L__unnamed_5(%rip), %rcx
	movq	.L__unnamed_5+8(%rip), %rax
	movq	%rcx, 64(%rsp)
	movq	%rax, 72(%rsp)
	leaq	.L__unnamed_7(%rip), %rax
	movq	%rax, 48(%rsp)
	movq	$0, 56(%rsp)
	leaq	.L__unnamed_8(%rip), %rsi
	movq	_ZN4core9panicking9panic_fmt17h940d4fd01a4b4fd1E@GOTPCREL(%rip), %rax
	leaq	32(%rsp), %rdi
	callq	*%rax
.Lfunc_end14:
	.size	_ZN4core10intrinsics23is_aligned_and_not_null17hd119284fbc89f314E, .Lfunc_end14-_ZN4core10intrinsics23is_aligned_and_not_null17hd119284fbc89f314E
	.cfi_endproc

	.section	.text._ZN4core10intrinsics8unlikely17hdace56343799b0a2E,"ax",@progbits
	.p2align	4, 0x90
	.type	_ZN4core10intrinsics8unlikely17hdace56343799b0a2E,@function
_ZN4core10intrinsics8unlikely17hdace56343799b0a2E:
	.cfi_startproc
	movb	%dil, %al
	andb	$1, %al
	movzbl	%al, %eax
	retq
.Lfunc_end15:
	.size	_ZN4core10intrinsics8unlikely17hdace56343799b0a2E, .Lfunc_end15-_ZN4core10intrinsics8unlikely17hdace56343799b0a2E
	.cfi_endproc

	.section	.text._ZN4core3fmt9Arguments6new_v117hc1aae150a70a99b7E,"ax",@progbits
	.p2align	4, 0x90
	.type	_ZN4core3fmt9Arguments6new_v117hc1aae150a70a99b7E,@function
_ZN4core3fmt9Arguments6new_v117hc1aae150a70a99b7E:
	.cfi_startproc
	subq	$104, %rsp
	.cfi_def_cfa_offset 112
	movq	%r8, 8(%rsp)
	movq	%rcx, 16(%rsp)
	movq	%rdx, 24(%rsp)
	movq	%rsi, 32(%rsp)
	movq	%rdi, 40(%rsp)
	movq	%rdi, 48(%rsp)
	cmpq	%r8, %rdx
	jb	.LBB16_2
	movq	24(%rsp), %rax
	movq	8(%rsp), %rcx
	addq	$1, %rcx
	cmpq	%rcx, %rax
	ja	.LBB16_4
	jmp	.LBB16_3
.LBB16_2:
	leaq	.L__unnamed_9(%rip), %rax
	movq	%rax, 56(%rsp)
	movq	$1, 64(%rsp)
	movq	.L__unnamed_5(%rip), %rcx
	movq	.L__unnamed_5+8(%rip), %rax
	movq	%rcx, 88(%rsp)
	movq	%rax, 96(%rsp)
	leaq	.L__unnamed_7(%rip), %rax
	movq	%rax, 72(%rsp)
	movq	$0, 80(%rsp)
	leaq	.L__unnamed_10(%rip), %rsi
	movq	_ZN4core9panicking9panic_fmt17h940d4fd01a4b4fd1E@GOTPCREL(%rip), %rax
	leaq	56(%rsp), %rdi
	callq	*%rax
.LBB16_3:
	movq	48(%rsp), %rax
	movq	40(%rsp), %rcx
	movq	8(%rsp), %rdx
	movq	16(%rsp), %rsi
	movq	24(%rsp), %rdi
	movq	32(%rsp), %r8
	movq	%r8, (%rcx)
	movq	%rdi, 8(%rcx)
	movq	.L__unnamed_5(%rip), %r8
	movq	.L__unnamed_5+8(%rip), %rdi
	movq	%r8, 32(%rcx)
	movq	%rdi, 40(%rcx)
	movq	%rsi, 16(%rcx)
	movq	%rdx, 24(%rcx)
	addq	$104, %rsp
	.cfi_def_cfa_offset 8
	retq
.LBB16_4:
	.cfi_def_cfa_offset 112
	jmp	.LBB16_2
.Lfunc_end16:
	.size	_ZN4core3fmt9Arguments6new_v117hc1aae150a70a99b7E, .Lfunc_end16-_ZN4core3fmt9Arguments6new_v117hc1aae150a70a99b7E
	.cfi_endproc

	.section	.text._ZN4core3fmt9Arguments9new_const17h44bc4ea26c6dca12E,"ax",@progbits
	.p2align	4, 0x90
	.type	_ZN4core3fmt9Arguments9new_const17h44bc4ea26c6dca12E,@function
_ZN4core3fmt9Arguments9new_const17h44bc4ea26c6dca12E:
	.cfi_startproc
	subq	$88, %rsp
	.cfi_def_cfa_offset 96
	movq	%rdx, 8(%rsp)
	movq	%rsi, 16(%rsp)
	movq	%rdi, 24(%rsp)
	movq	%rdi, 32(%rsp)
	cmpq	$1, %rdx
	ja	.LBB17_2
	movq	32(%rsp), %rax
	movq	24(%rsp), %rcx
	movq	8(%rsp), %rdx
	movq	16(%rsp), %rsi
	movq	%rsi, (%rcx)
	movq	%rdx, 8(%rcx)
	movq	.L__unnamed_5(%rip), %rsi
	movq	.L__unnamed_5+8(%rip), %rdx
	movq	%rsi, 32(%rcx)
	movq	%rdx, 40(%rcx)
	leaq	.L__unnamed_7(%rip), %rdx
	movq	%rdx, 16(%rcx)
	movq	$0, 24(%rcx)
	addq	$88, %rsp
	.cfi_def_cfa_offset 8
	retq
.LBB17_2:
	.cfi_def_cfa_offset 96
	leaq	.L__unnamed_9(%rip), %rsi
	leaq	40(%rsp), %rdi
	movq	%rdi, (%rsp)
	movl	$1, %edx
	callq	_ZN4core3fmt9Arguments9new_const17h44bc4ea26c6dca12E
	movq	(%rsp), %rdi
	leaq	.L__unnamed_11(%rip), %rsi
	movq	_ZN4core9panicking9panic_fmt17h940d4fd01a4b4fd1E@GOTPCREL(%rip), %rax
	callq	*%rax
.Lfunc_end17:
	.size	_ZN4core3fmt9Arguments9new_const17h44bc4ea26c6dca12E, .Lfunc_end17-_ZN4core3fmt9Arguments9new_const17h44bc4ea26c6dca12E
	.cfi_endproc

	.section	".text._ZN4core3ops8function6FnOnce40call_once$u7b$$u7b$vtable.shim$u7d$$u7d$17h1e7154750d3da721E","ax",@progbits
	.p2align	4, 0x90
	.type	_ZN4core3ops8function6FnOnce40call_once$u7b$$u7b$vtable.shim$u7d$$u7d$17h1e7154750d3da721E,@function
_ZN4core3ops8function6FnOnce40call_once$u7b$$u7b$vtable.shim$u7d$$u7d$17h1e7154750d3da721E:
	.cfi_startproc
	pushq	%rax
	.cfi_def_cfa_offset 16
	movq	(%rdi), %rdi
	callq	_ZN4core3ops8function6FnOnce9call_once17haff4a4c47e4e3b75E
	popq	%rcx
	.cfi_def_cfa_offset 8
	retq
.Lfunc_end18:
	.size	_ZN4core3ops8function6FnOnce40call_once$u7b$$u7b$vtable.shim$u7d$$u7d$17h1e7154750d3da721E, .Lfunc_end18-_ZN4core3ops8function6FnOnce40call_once$u7b$$u7b$vtable.shim$u7d$$u7d$17h1e7154750d3da721E
	.cfi_endproc

	.section	.text._ZN4core3ops8function6FnOnce9call_once17haff4a4c47e4e3b75E,"ax",@progbits
	.p2align	4, 0x90
	.type	_ZN4core3ops8function6FnOnce9call_once17haff4a4c47e4e3b75E,@function
_ZN4core3ops8function6FnOnce9call_once17haff4a4c47e4e3b75E:
.Lfunc_begin1:
	.cfi_startproc
	.cfi_personality 155, DW.ref.rust_eh_personality
	.cfi_lsda 27, .Lexception1
	subq	$40, %rsp
	.cfi_def_cfa_offset 48
	movq	%rdi, 8(%rsp)
.Ltmp7:
	leaq	8(%rsp), %rdi
	callq	_ZN3std2rt10lang_start28_$u7b$$u7b$closure$u7d$$u7d$17h65457686beb1758fE
.Ltmp8:
	movl	%eax, 4(%rsp)
	jmp	.LBB19_3
.LBB19_1:
	movq	24(%rsp), %rdi
	callq	_Unwind_Resume@PLT
.LBB19_2:
.Ltmp9:
	movq	%rax, %rcx
	movl	%edx, %eax
	movq	%rcx, 24(%rsp)
	movl	%eax, 32(%rsp)
	jmp	.LBB19_1
.LBB19_3:
	movl	4(%rsp), %eax
	addq	$40, %rsp
	.cfi_def_cfa_offset 8
	retq
.Lfunc_end19:
	.size	_ZN4core3ops8function6FnOnce9call_once17haff4a4c47e4e3b75E, .Lfunc_end19-_ZN4core3ops8function6FnOnce9call_once17haff4a4c47e4e3b75E
	.cfi_endproc
	.section	.gcc_except_table._ZN4core3ops8function6FnOnce9call_once17haff4a4c47e4e3b75E,"a",@progbits
	.p2align	2, 0x0
GCC_except_table19:
.Lexception1:
	.byte	255
	.byte	255
	.byte	1
	.uleb128 .Lcst_end1-.Lcst_begin1
.Lcst_begin1:
	.uleb128 .Ltmp7-.Lfunc_begin1
	.uleb128 .Ltmp8-.Ltmp7
	.uleb128 .Ltmp9-.Lfunc_begin1
	.byte	0
	.uleb128 .Ltmp8-.Lfunc_begin1
	.uleb128 .Lfunc_end19-.Ltmp8
	.byte	0
	.byte	0
.Lcst_end1:
	.p2align	2, 0x0

	.section	.text._ZN4core3ops8function6FnOnce9call_once17hedecc42a571629d6E,"ax",@progbits
	.p2align	4, 0x90
	.type	_ZN4core3ops8function6FnOnce9call_once17hedecc42a571629d6E,@function
_ZN4core3ops8function6FnOnce9call_once17hedecc42a571629d6E:
	.cfi_startproc
	pushq	%rax
	.cfi_def_cfa_offset 16
	callq	*%rdi
	popq	%rax
	.cfi_def_cfa_offset 8
	retq
.Lfunc_end20:
	.size	_ZN4core3ops8function6FnOnce9call_once17hedecc42a571629d6E, .Lfunc_end20-_ZN4core3ops8function6FnOnce9call_once17hedecc42a571629d6E
	.cfi_endproc

	.section	".text._ZN4core3ptr101drop_in_place$LT$std..io..error..ErrorData$LT$alloc..boxed..Box$LT$std..io..error..Custom$GT$$GT$$GT$17heb2f6d840d259c1dE","ax",@progbits
	.p2align	4, 0x90
	.type	_ZN4core3ptr101drop_in_place$LT$std..io..error..ErrorData$LT$alloc..boxed..Box$LT$std..io..error..Custom$GT$$GT$$GT$17heb2f6d840d259c1dE,@function
_ZN4core3ptr101drop_in_place$LT$std..io..error..ErrorData$LT$alloc..boxed..Box$LT$std..io..error..Custom$GT$$GT$$GT$17heb2f6d840d259c1dE:
	.cfi_startproc
	pushq	%rax
	.cfi_def_cfa_offset 16
	movq	%rdi, (%rsp)
	movb	(%rdi), %al
	subb	$3, %al
	jb	.LBB21_2
	jmp	.LBB21_1
.LBB21_1:
	movq	(%rsp), %rdi
	addq	$8, %rdi
	callq	_ZN4core3ptr68drop_in_place$LT$alloc..boxed..Box$LT$std..io..error..Custom$GT$$GT$17h4fa1f2855fd3f87fE
.LBB21_2:
	popq	%rax
	.cfi_def_cfa_offset 8
	retq
.Lfunc_end21:
	.size	_ZN4core3ptr101drop_in_place$LT$std..io..error..ErrorData$LT$alloc..boxed..Box$LT$std..io..error..Custom$GT$$GT$$GT$17heb2f6d840d259c1dE, .Lfunc_end21-_ZN4core3ptr101drop_in_place$LT$std..io..error..ErrorData$LT$alloc..boxed..Box$LT$std..io..error..Custom$GT$$GT$$GT$17heb2f6d840d259c1dE
	.cfi_endproc

	.section	".text._ZN4core3ptr118drop_in_place$LT$alloc..boxed..Box$LT$dyn$u20$core..error..Error$u2b$core..marker..Send$u2b$core..marker..Sync$GT$$GT$17hd1b39b22cea43206E","ax",@progbits
	.p2align	4, 0x90
	.type	_ZN4core3ptr118drop_in_place$LT$alloc..boxed..Box$LT$dyn$u20$core..error..Error$u2b$core..marker..Send$u2b$core..marker..Sync$GT$$GT$17hd1b39b22cea43206E,@function
_ZN4core3ptr118drop_in_place$LT$alloc..boxed..Box$LT$dyn$u20$core..error..Error$u2b$core..marker..Send$u2b$core..marker..Sync$GT$$GT$17hd1b39b22cea43206E:
.Lfunc_begin2:
	.cfi_startproc
	.cfi_personality 155, DW.ref.rust_eh_personality
	.cfi_lsda 27, .Lexception2
	subq	$24, %rsp
	.cfi_def_cfa_offset 32
	movq	%rdi, %rax
	movq	%rax, (%rsp)
	movq	(%rax), %rdi
	movq	8(%rax), %rax
	movq	(%rax), %rax
.Ltmp10:
	callq	*%rax
.Ltmp11:
	jmp	.LBB22_3
.LBB22_1:
.Ltmp13:
	movq	(%rsp), %rdi
	callq	_ZN72_$LT$alloc..boxed..Box$LT$T$C$A$GT$$u20$as$u20$core..ops..drop..Drop$GT$4drop17h13f3493bae763d79E
.Ltmp14:
	jmp	.LBB22_5
.LBB22_2:
.Ltmp12:
	movq	%rax, %rcx
	movl	%edx, %eax
	movq	%rcx, 8(%rsp)
	movl	%eax, 16(%rsp)
	jmp	.LBB22_1
.LBB22_3:
	movq	(%rsp), %rdi
	callq	_ZN72_$LT$alloc..boxed..Box$LT$T$C$A$GT$$u20$as$u20$core..ops..drop..Drop$GT$4drop17h13f3493bae763d79E
	addq	$24, %rsp
	.cfi_def_cfa_offset 8
	retq
.LBB22_4:
	.cfi_def_cfa_offset 32
.Ltmp15:
	movq	_ZN4core9panicking16panic_in_cleanup17hc8e2b17e1b6d1381E@GOTPCREL(%rip), %rax
	callq	*%rax
.LBB22_5:
	movq	8(%rsp), %rdi
	callq	_Unwind_Resume@PLT
.Lfunc_end22:
	.size	_ZN4core3ptr118drop_in_place$LT$alloc..boxed..Box$LT$dyn$u20$core..error..Error$u2b$core..marker..Send$u2b$core..marker..Sync$GT$$GT$17hd1b39b22cea43206E, .Lfunc_end22-_ZN4core3ptr118drop_in_place$LT$alloc..boxed..Box$LT$dyn$u20$core..error..Error$u2b$core..marker..Send$u2b$core..marker..Sync$GT$$GT$17hd1b39b22cea43206E
	.cfi_endproc
	.section	".gcc_except_table._ZN4core3ptr118drop_in_place$LT$alloc..boxed..Box$LT$dyn$u20$core..error..Error$u2b$core..marker..Send$u2b$core..marker..Sync$GT$$GT$17hd1b39b22cea43206E","a",@progbits
	.p2align	2, 0x0
GCC_except_table22:
.Lexception2:
	.byte	255
	.byte	155
	.uleb128 .Lttbase0-.Lttbaseref0
.Lttbaseref0:
	.byte	1
	.uleb128 .Lcst_end2-.Lcst_begin2
.Lcst_begin2:
	.uleb128 .Ltmp10-.Lfunc_begin2
	.uleb128 .Ltmp11-.Ltmp10
	.uleb128 .Ltmp12-.Lfunc_begin2
	.byte	0
	.uleb128 .Ltmp13-.Lfunc_begin2
	.uleb128 .Ltmp14-.Ltmp13
	.uleb128 .Ltmp15-.Lfunc_begin2
	.byte	1
	.uleb128 .Ltmp14-.Lfunc_begin2
	.uleb128 .Lfunc_end22-.Ltmp14
	.byte	0
	.byte	0
.Lcst_end2:
	.byte	127
	.byte	0
	.p2align	2, 0x0
.Lttbase0:
	.byte	0
	.p2align	2, 0x0

	.section	".text._ZN4core3ptr42drop_in_place$LT$alloc..string..String$GT$17hf4922e51796c7b72E","ax",@progbits
	.p2align	4, 0x90
	.type	_ZN4core3ptr42drop_in_place$LT$alloc..string..String$GT$17hf4922e51796c7b72E,@function
_ZN4core3ptr42drop_in_place$LT$alloc..string..String$GT$17hf4922e51796c7b72E:
	.cfi_startproc
	pushq	%rax
	.cfi_def_cfa_offset 16
	callq	_ZN4core3ptr46drop_in_place$LT$alloc..vec..Vec$LT$u8$GT$$GT$17h594fb55167b265efE
	popq	%rax
	.cfi_def_cfa_offset 8
	retq
.Lfunc_end23:
	.size	_ZN4core3ptr42drop_in_place$LT$alloc..string..String$GT$17hf4922e51796c7b72E, .Lfunc_end23-_ZN4core3ptr42drop_in_place$LT$alloc..string..String$GT$17hf4922e51796c7b72E
	.cfi_endproc

	.section	".text._ZN4core3ptr42drop_in_place$LT$std..io..error..Error$GT$17he3e7eb901fd8dfc5E","ax",@progbits
	.p2align	4, 0x90
	.type	_ZN4core3ptr42drop_in_place$LT$std..io..error..Error$GT$17he3e7eb901fd8dfc5E,@function
_ZN4core3ptr42drop_in_place$LT$std..io..error..Error$GT$17he3e7eb901fd8dfc5E:
	.cfi_startproc
	pushq	%rax
	.cfi_def_cfa_offset 16
	callq	_ZN4core3ptr57drop_in_place$LT$std..io..error..repr_bitpacked..Repr$GT$17h80c7bd4b0a38412dE
	popq	%rax
	.cfi_def_cfa_offset 8
	retq
.Lfunc_end24:
	.size	_ZN4core3ptr42drop_in_place$LT$std..io..error..Error$GT$17he3e7eb901fd8dfc5E, .Lfunc_end24-_ZN4core3ptr42drop_in_place$LT$std..io..error..Error$GT$17he3e7eb901fd8dfc5E
	.cfi_endproc

	.section	".text._ZN4core3ptr43drop_in_place$LT$std..io..error..Custom$GT$17h6451947c39847b95E","ax",@progbits
	.p2align	4, 0x90
	.type	_ZN4core3ptr43drop_in_place$LT$std..io..error..Custom$GT$17h6451947c39847b95E,@function
_ZN4core3ptr43drop_in_place$LT$std..io..error..Custom$GT$17h6451947c39847b95E:
	.cfi_startproc
	pushq	%rax
	.cfi_def_cfa_offset 16
	callq	_ZN4core3ptr118drop_in_place$LT$alloc..boxed..Box$LT$dyn$u20$core..error..Error$u2b$core..marker..Send$u2b$core..marker..Sync$GT$$GT$17hd1b39b22cea43206E
	popq	%rax
	.cfi_def_cfa_offset 8
	retq
.Lfunc_end25:
	.size	_ZN4core3ptr43drop_in_place$LT$std..io..error..Custom$GT$17h6451947c39847b95E, .Lfunc_end25-_ZN4core3ptr43drop_in_place$LT$std..io..error..Custom$GT$17h6451947c39847b95E
	.cfi_endproc

	.section	".text._ZN4core3ptr46drop_in_place$LT$alloc..vec..Vec$LT$u8$GT$$GT$17h594fb55167b265efE","ax",@progbits
	.p2align	4, 0x90
	.type	_ZN4core3ptr46drop_in_place$LT$alloc..vec..Vec$LT$u8$GT$$GT$17h594fb55167b265efE,@function
_ZN4core3ptr46drop_in_place$LT$alloc..vec..Vec$LT$u8$GT$$GT$17h594fb55167b265efE:
.Lfunc_begin3:
	.cfi_startproc
	.cfi_personality 155, DW.ref.rust_eh_personality
	.cfi_lsda 27, .Lexception3
	subq	$24, %rsp
	.cfi_def_cfa_offset 32
	movq	%rdi, (%rsp)
.Ltmp16:
	callq	_ZN70_$LT$alloc..vec..Vec$LT$T$C$A$GT$$u20$as$u20$core..ops..drop..Drop$GT$4drop17hc519b19a65cdeb50E
.Ltmp17:
	jmp	.LBB26_3
.LBB26_1:
.Ltmp19:
	movq	(%rsp), %rdi
	callq	_ZN4core3ptr53drop_in_place$LT$alloc..raw_vec..RawVec$LT$u8$GT$$GT$17hc57c209086f32f8aE
.Ltmp20:
	jmp	.LBB26_5
.LBB26_2:
.Ltmp18:
	movq	%rax, %rcx
	movl	%edx, %eax
	movq	%rcx, 8(%rsp)
	movl	%eax, 16(%rsp)
	jmp	.LBB26_1
.LBB26_3:
	movq	(%rsp), %rdi
	callq	_ZN4core3ptr53drop_in_place$LT$alloc..raw_vec..RawVec$LT$u8$GT$$GT$17hc57c209086f32f8aE
	addq	$24, %rsp
	.cfi_def_cfa_offset 8
	retq
.LBB26_4:
	.cfi_def_cfa_offset 32
.Ltmp21:
	movq	_ZN4core9panicking16panic_in_cleanup17hc8e2b17e1b6d1381E@GOTPCREL(%rip), %rax
	callq	*%rax
.LBB26_5:
	movq	8(%rsp), %rdi
	callq	_Unwind_Resume@PLT
.Lfunc_end26:
	.size	_ZN4core3ptr46drop_in_place$LT$alloc..vec..Vec$LT$u8$GT$$GT$17h594fb55167b265efE, .Lfunc_end26-_ZN4core3ptr46drop_in_place$LT$alloc..vec..Vec$LT$u8$GT$$GT$17h594fb55167b265efE
	.cfi_endproc
	.section	".gcc_except_table._ZN4core3ptr46drop_in_place$LT$alloc..vec..Vec$LT$u8$GT$$GT$17h594fb55167b265efE","a",@progbits
	.p2align	2, 0x0
GCC_except_table26:
.Lexception3:
	.byte	255
	.byte	155
	.uleb128 .Lttbase1-.Lttbaseref1
.Lttbaseref1:
	.byte	1
	.uleb128 .Lcst_end3-.Lcst_begin3
.Lcst_begin3:
	.uleb128 .Ltmp16-.Lfunc_begin3
	.uleb128 .Ltmp17-.Ltmp16
	.uleb128 .Ltmp18-.Lfunc_begin3
	.byte	0
	.uleb128 .Ltmp19-.Lfunc_begin3
	.uleb128 .Ltmp20-.Ltmp19
	.uleb128 .Ltmp21-.Lfunc_begin3
	.byte	1
	.uleb128 .Ltmp20-.Lfunc_begin3
	.uleb128 .Lfunc_end26-.Ltmp20
	.byte	0
	.byte	0
.Lcst_end3:
	.byte	127
	.byte	0
	.p2align	2, 0x0
.Lttbase1:
	.byte	0
	.p2align	2, 0x0

	.section	".text._ZN4core3ptr53drop_in_place$LT$alloc..raw_vec..RawVec$LT$u8$GT$$GT$17hc57c209086f32f8aE","ax",@progbits
	.p2align	4, 0x90
	.type	_ZN4core3ptr53drop_in_place$LT$alloc..raw_vec..RawVec$LT$u8$GT$$GT$17hc57c209086f32f8aE,@function
_ZN4core3ptr53drop_in_place$LT$alloc..raw_vec..RawVec$LT$u8$GT$$GT$17hc57c209086f32f8aE:
	.cfi_startproc
	pushq	%rax
	.cfi_def_cfa_offset 16
	callq	_ZN77_$LT$alloc..raw_vec..RawVec$LT$T$C$A$GT$$u20$as$u20$core..ops..drop..Drop$GT$4drop17h577ef7952f46237cE
	popq	%rax
	.cfi_def_cfa_offset 8
	retq
.Lfunc_end27:
	.size	_ZN4core3ptr53drop_in_place$LT$alloc..raw_vec..RawVec$LT$u8$GT$$GT$17hc57c209086f32f8aE, .Lfunc_end27-_ZN4core3ptr53drop_in_place$LT$alloc..raw_vec..RawVec$LT$u8$GT$$GT$17hc57c209086f32f8aE
	.cfi_endproc

	.section	".text._ZN4core3ptr57drop_in_place$LT$std..io..error..repr_bitpacked..Repr$GT$17h80c7bd4b0a38412dE","ax",@progbits
	.p2align	4, 0x90
	.type	_ZN4core3ptr57drop_in_place$LT$std..io..error..repr_bitpacked..Repr$GT$17h80c7bd4b0a38412dE,@function
_ZN4core3ptr57drop_in_place$LT$std..io..error..repr_bitpacked..Repr$GT$17h80c7bd4b0a38412dE:
	.cfi_startproc
	pushq	%rax
	.cfi_def_cfa_offset 16
	callq	_ZN78_$LT$std..io..error..repr_bitpacked..Repr$u20$as$u20$core..ops..drop..Drop$GT$4drop17h981ddab7657238f1E
	popq	%rax
	.cfi_def_cfa_offset 8
	retq
.Lfunc_end28:
	.size	_ZN4core3ptr57drop_in_place$LT$std..io..error..repr_bitpacked..Repr$GT$17h80c7bd4b0a38412dE, .Lfunc_end28-_ZN4core3ptr57drop_in_place$LT$std..io..error..repr_bitpacked..Repr$GT$17h80c7bd4b0a38412dE
	.cfi_endproc

	.section	".text._ZN4core3ptr68drop_in_place$LT$alloc..boxed..Box$LT$std..io..error..Custom$GT$$GT$17h4fa1f2855fd3f87fE","ax",@progbits
	.p2align	4, 0x90
	.type	_ZN4core3ptr68drop_in_place$LT$alloc..boxed..Box$LT$std..io..error..Custom$GT$$GT$17h4fa1f2855fd3f87fE,@function
_ZN4core3ptr68drop_in_place$LT$alloc..boxed..Box$LT$std..io..error..Custom$GT$$GT$17h4fa1f2855fd3f87fE:
.Lfunc_begin4:
	.cfi_startproc
	.cfi_personality 155, DW.ref.rust_eh_personality
	.cfi_lsda 27, .Lexception4
	subq	$24, %rsp
	.cfi_def_cfa_offset 32
	movq	%rdi, (%rsp)
	movq	(%rdi), %rdi
.Ltmp22:
	callq	_ZN4core3ptr43drop_in_place$LT$std..io..error..Custom$GT$17h6451947c39847b95E
.Ltmp23:
	jmp	.LBB29_3
.LBB29_1:
.Ltmp25:
	movq	(%rsp), %rdi
	callq	_ZN72_$LT$alloc..boxed..Box$LT$T$C$A$GT$$u20$as$u20$core..ops..drop..Drop$GT$4drop17h6f9a1ebfc461ec5bE
.Ltmp26:
	jmp	.LBB29_5
.LBB29_2:
.Ltmp24:
	movq	%rax, %rcx
	movl	%edx, %eax
	movq	%rcx, 8(%rsp)
	movl	%eax, 16(%rsp)
	jmp	.LBB29_1
.LBB29_3:
	movq	(%rsp), %rdi
	callq	_ZN72_$LT$alloc..boxed..Box$LT$T$C$A$GT$$u20$as$u20$core..ops..drop..Drop$GT$4drop17h6f9a1ebfc461ec5bE
	addq	$24, %rsp
	.cfi_def_cfa_offset 8
	retq
.LBB29_4:
	.cfi_def_cfa_offset 32
.Ltmp27:
	movq	_ZN4core9panicking16panic_in_cleanup17hc8e2b17e1b6d1381E@GOTPCREL(%rip), %rax
	callq	*%rax
.LBB29_5:
	movq	8(%rsp), %rdi
	callq	_Unwind_Resume@PLT
.Lfunc_end29:
	.size	_ZN4core3ptr68drop_in_place$LT$alloc..boxed..Box$LT$std..io..error..Custom$GT$$GT$17h4fa1f2855fd3f87fE, .Lfunc_end29-_ZN4core3ptr68drop_in_place$LT$alloc..boxed..Box$LT$std..io..error..Custom$GT$$GT$17h4fa1f2855fd3f87fE
	.cfi_endproc
	.section	".gcc_except_table._ZN4core3ptr68drop_in_place$LT$alloc..boxed..Box$LT$std..io..error..Custom$GT$$GT$17h4fa1f2855fd3f87fE","a",@progbits
	.p2align	2, 0x0
GCC_except_table29:
.Lexception4:
	.byte	255
	.byte	155
	.uleb128 .Lttbase2-.Lttbaseref2
.Lttbaseref2:
	.byte	1
	.uleb128 .Lcst_end4-.Lcst_begin4
.Lcst_begin4:
	.uleb128 .Ltmp22-.Lfunc_begin4
	.uleb128 .Ltmp23-.Ltmp22
	.uleb128 .Ltmp24-.Lfunc_begin4
	.byte	0
	.uleb128 .Ltmp25-.Lfunc_begin4
	.uleb128 .Ltmp26-.Ltmp25
	.uleb128 .Ltmp27-.Lfunc_begin4
	.byte	1
	.uleb128 .Ltmp26-.Lfunc_begin4
	.uleb128 .Lfunc_end29-.Ltmp26
	.byte	0
	.byte	0
.Lcst_end4:
	.byte	127
	.byte	0
	.p2align	2, 0x0
.Lttbase2:
	.byte	0
	.p2align	2, 0x0

	.section	".text._ZN4core3ptr85drop_in_place$LT$std..rt..lang_start$LT$$LP$$RP$$GT$..$u7b$$u7b$closure$u7d$$u7d$$GT$17hb096a4bc53081766E","ax",@progbits
	.p2align	4, 0x90
	.type	_ZN4core3ptr85drop_in_place$LT$std..rt..lang_start$LT$$LP$$RP$$GT$..$u7b$$u7b$closure$u7d$$u7d$$GT$17hb096a4bc53081766E,@function
_ZN4core3ptr85drop_in_place$LT$std..rt..lang_start$LT$$LP$$RP$$GT$..$u7b$$u7b$closure$u7d$$u7d$$GT$17hb096a4bc53081766E:
	.cfi_startproc
	retq
.Lfunc_end30:
	.size	_ZN4core3ptr85drop_in_place$LT$std..rt..lang_start$LT$$LP$$RP$$GT$..$u7b$$u7b$closure$u7d$$u7d$$GT$17hb096a4bc53081766E, .Lfunc_end30-_ZN4core3ptr85drop_in_place$LT$std..rt..lang_start$LT$$LP$$RP$$GT$..$u7b$$u7b$closure$u7d$$u7d$$GT$17hb096a4bc53081766E
	.cfi_endproc

	.section	".text._ZN4core3ptr8non_null16NonNull$LT$T$GT$13new_unchecked18precondition_check17h439675fa9bf80c86E","ax",@progbits
	.p2align	4, 0x90
	.type	_ZN4core3ptr8non_null16NonNull$LT$T$GT$13new_unchecked18precondition_check17h439675fa9bf80c86E,@function
_ZN4core3ptr8non_null16NonNull$LT$T$GT$13new_unchecked18precondition_check17h439675fa9bf80c86E:
	.cfi_startproc
	pushq	%rax
	.cfi_def_cfa_offset 16
	cmpq	$0, %rdi
	jne	.LBB31_2
	leaq	.L__unnamed_12(%rip), %rdi
	movq	_ZN4core9panicking14panic_nounwind17h6cf0e2fad305eb86E@GOTPCREL(%rip), %rax
	movl	$93, %esi
	callq	*%rax
.LBB31_2:
	popq	%rax
	.cfi_def_cfa_offset 8
	retq
.Lfunc_end31:
	.size	_ZN4core3ptr8non_null16NonNull$LT$T$GT$13new_unchecked18precondition_check17h439675fa9bf80c86E, .Lfunc_end31-_ZN4core3ptr8non_null16NonNull$LT$T$GT$13new_unchecked18precondition_check17h439675fa9bf80c86E
	.cfi_endproc

	.section	".text._ZN4core3ptr93drop_in_place$LT$dyn$u20$core..error..Error$u2b$core..marker..Send$u2b$core..marker..Sync$GT$17hf8cd8189f4f62d8bE","ax",@progbits
	.p2align	4, 0x90
	.type	_ZN4core3ptr93drop_in_place$LT$dyn$u20$core..error..Error$u2b$core..marker..Send$u2b$core..marker..Sync$GT$17hf8cd8189f4f62d8bE,@function
_ZN4core3ptr93drop_in_place$LT$dyn$u20$core..error..Error$u2b$core..marker..Send$u2b$core..marker..Sync$GT$17hf8cd8189f4f62d8bE:
	.cfi_startproc
	pushq	%rax
	.cfi_def_cfa_offset 16
	callq	*(%rsi)
	popq	%rax
	.cfi_def_cfa_offset 8
	retq
.Lfunc_end32:
	.size	_ZN4core3ptr93drop_in_place$LT$dyn$u20$core..error..Error$u2b$core..marker..Send$u2b$core..marker..Sync$GT$17hf8cd8189f4f62d8bE, .Lfunc_end32-_ZN4core3ptr93drop_in_place$LT$dyn$u20$core..error..Error$u2b$core..marker..Send$u2b$core..marker..Sync$GT$17hf8cd8189f4f62d8bE
	.cfi_endproc

	.section	".text._ZN4core3ptr9const_ptr33_$LT$impl$u20$$BP$const$u20$T$GT$7sub_ptr17h41eddbdd08bba3bcE","ax",@progbits
	.p2align	4, 0x90
	.type	_ZN4core3ptr9const_ptr33_$LT$impl$u20$$BP$const$u20$T$GT$7sub_ptr17h41eddbdd08bba3bcE,@function
_ZN4core3ptr9const_ptr33_$LT$impl$u20$$BP$const$u20$T$GT$7sub_ptr17h41eddbdd08bba3bcE:
	.cfi_startproc
	subq	$24, %rsp
	.cfi_def_cfa_offset 32
	movq	%rdi, (%rsp)
	movq	%rsi, 8(%rsp)
	movq	8(%rsp), %rsi
	movq	(%rsp), %rdi
	callq	_ZN4core3ptr9const_ptr33_$LT$impl$u20$$BP$const$u20$T$GT$7sub_ptr18precondition_check17h4cd7a6e0c04d975dE
	jmp	.LBB33_3
.LBB33_3:
	jmp	.LBB33_4
.LBB33_4:
	movq	8(%rsp), %rcx
	movq	(%rsp), %rax
	subq	%rcx, %rax
	shrq	$0, %rax
	movq	%rax, 16(%rsp)
	movq	16(%rsp), %rax
	addq	$24, %rsp
	.cfi_def_cfa_offset 8
	retq
.Lfunc_end33:
	.size	_ZN4core3ptr9const_ptr33_$LT$impl$u20$$BP$const$u20$T$GT$7sub_ptr17h41eddbdd08bba3bcE, .Lfunc_end33-_ZN4core3ptr9const_ptr33_$LT$impl$u20$$BP$const$u20$T$GT$7sub_ptr17h41eddbdd08bba3bcE
	.cfi_endproc

	.section	".text._ZN4core3ptr9const_ptr33_$LT$impl$u20$$BP$const$u20$T$GT$7sub_ptr18precondition_check17h4cd7a6e0c04d975dE","ax",@progbits
	.p2align	4, 0x90
	.type	_ZN4core3ptr9const_ptr33_$LT$impl$u20$$BP$const$u20$T$GT$7sub_ptr18precondition_check17h4cd7a6e0c04d975dE,@function
_ZN4core3ptr9const_ptr33_$LT$impl$u20$$BP$const$u20$T$GT$7sub_ptr18precondition_check17h4cd7a6e0c04d975dE:
	.cfi_startproc
	pushq	%rax
	.cfi_def_cfa_offset 16
	cmpq	%rsi, %rdi
	jae	.LBB34_2
	leaq	.L__unnamed_13(%rip), %rdi
	movq	_ZN4core9panicking14panic_nounwind17h6cf0e2fad305eb86E@GOTPCREL(%rip), %rax
	movl	$71, %esi
	callq	*%rax
.LBB34_2:
	popq	%rax
	.cfi_def_cfa_offset 8
	retq
.Lfunc_end34:
	.size	_ZN4core3ptr9const_ptr33_$LT$impl$u20$$BP$const$u20$T$GT$7sub_ptr18precondition_check17h4cd7a6e0c04d975dE, .Lfunc_end34-_ZN4core3ptr9const_ptr33_$LT$impl$u20$$BP$const$u20$T$GT$7sub_ptr18precondition_check17h4cd7a6e0c04d975dE
	.cfi_endproc

	.section	.text._ZN4core3str11validations15next_code_point17hcc226ce6caa4a1f2E,"ax",@progbits
	.p2align	4, 0x90
	.type	_ZN4core3str11validations15next_code_point17hcc226ce6caa4a1f2E,@function
_ZN4core3str11validations15next_code_point17hcc226ce6caa4a1f2E:
	.cfi_startproc
	subq	$88, %rsp
	.cfi_def_cfa_offset 96
	movq	%rdi, 24(%rsp)
	callq	_ZN91_$LT$core..slice..iter..Iter$LT$T$GT$$u20$as$u20$core..iter..traits..iterator..Iterator$GT$4next17h79f751ab3323a663E
	movq	%rax, 48(%rsp)
	movq	48(%rsp), %rdx
	movl	$1, %eax
	xorl	%ecx, %ecx
	cmpq	$0, %rdx
	cmoveq	%rcx, %rax
	cmpq	$0, %rax
	jne	.LBB35_2
	movl	.L__unnamed_14(%rip), %ecx
	movl	.L__unnamed_14+4(%rip), %eax
	movl	%ecx, 32(%rsp)
	movl	%eax, 36(%rsp)
	jmp	.LBB35_3
.LBB35_2:
	movq	48(%rsp), %rax
	movq	%rax, 40(%rsp)
	movq	40(%rsp), %rax
	movb	(%rax), %al
	movb	%al, 23(%rsp)
	cmpb	$-128, %al
	jb	.LBB35_5
	jmp	.LBB35_4
.LBB35_3:
	movl	32(%rsp), %eax
	movl	36(%rsp), %edx
	addq	$88, %rsp
	.cfi_def_cfa_offset 8
	retq
.LBB35_4:
	.cfi_def_cfa_offset 96
	movq	24(%rsp), %rdi
	movb	23(%rsp), %al
	andb	$31, %al
	movzbl	%al, %eax
	movl	%eax, 16(%rsp)
	callq	_ZN91_$LT$core..slice..iter..Iter$LT$T$GT$$u20$as$u20$core..iter..traits..iterator..Iterator$GT$4next17h79f751ab3323a663E
	movq	%rax, 56(%rsp)
	movq	56(%rsp), %rdx
	movl	$1, %eax
	xorl	%ecx, %ecx
	cmpq	$0, %rdx
	cmoveq	%rcx, %rax
	cmpq	$0, %rax
	je	.LBB35_6
	jmp	.LBB35_7
.LBB35_5:
	movb	23(%rsp), %al
	movzbl	%al, %eax
	movl	%eax, 36(%rsp)
	movl	$1, 32(%rsp)
	jmp	.LBB35_3
.LBB35_6:
	callq	_ZN4core4hint21unreachable_unchecked18precondition_check17h841dfdd43017a8e5E
	jmp	.LBB35_8
.LBB35_7:
	movb	23(%rsp), %al
	movl	16(%rsp), %ecx
	movq	56(%rsp), %rdx
	movb	(%rdx), %dl
	shll	$6, %ecx
	andb	$63, %dl
	movzbl	%dl, %edx
	movl	%edx, 12(%rsp)
	orl	%edx, %ecx
	movl	%ecx, 68(%rsp)
	cmpb	$-32, %al
	jae	.LBB35_10
	jmp	.LBB35_9
.LBB35_8:
	ud2
.LBB35_9:
	movl	68(%rsp), %eax
	movl	%eax, 36(%rsp)
	movl	$1, 32(%rsp)
	jmp	.LBB35_3
.LBB35_10:
	movq	24(%rsp), %rdi
	callq	_ZN91_$LT$core..slice..iter..Iter$LT$T$GT$$u20$as$u20$core..iter..traits..iterator..Iterator$GT$4next17h79f751ab3323a663E
	movq	%rax, 72(%rsp)
	movq	72(%rsp), %rdx
	movl	$1, %eax
	xorl	%ecx, %ecx
	cmpq	$0, %rdx
	cmoveq	%rcx, %rax
	cmpq	$0, %rax
	jne	.LBB35_12
	callq	_ZN4core4hint21unreachable_unchecked18precondition_check17h841dfdd43017a8e5E
	jmp	.LBB35_8
.LBB35_12:
	movb	23(%rsp), %al
	movl	16(%rsp), %ecx
	movl	12(%rsp), %edx
	movq	72(%rsp), %rsi
	movb	(%rsi), %sil
	shll	$6, %edx
	andb	$63, %sil
	movzbl	%sil, %esi
	orl	%esi, %edx
	movl	%edx, 8(%rsp)
	shll	$12, %ecx
	orl	%edx, %ecx
	movl	%ecx, 68(%rsp)
	cmpb	$-16, %al
	jae	.LBB35_14
.LBB35_13:
	jmp	.LBB35_9
.LBB35_14:
	movq	24(%rsp), %rdi
	callq	_ZN91_$LT$core..slice..iter..Iter$LT$T$GT$$u20$as$u20$core..iter..traits..iterator..Iterator$GT$4next17h79f751ab3323a663E
	movq	%rax, 80(%rsp)
	movq	80(%rsp), %rdx
	movl	$1, %eax
	xorl	%ecx, %ecx
	cmpq	$0, %rdx
	cmoveq	%rcx, %rax
	cmpq	$0, %rax
	jne	.LBB35_16
	callq	_ZN4core4hint21unreachable_unchecked18precondition_check17h841dfdd43017a8e5E
	jmp	.LBB35_8
.LBB35_16:
	movl	8(%rsp), %ecx
	movl	16(%rsp), %eax
	movq	80(%rsp), %rdx
	movb	(%rdx), %dl
	andl	$7, %eax
	shll	$18, %eax
	shll	$6, %ecx
	andb	$63, %dl
	movzbl	%dl, %edx
	orl	%edx, %ecx
	orl	%ecx, %eax
	movl	%eax, 68(%rsp)
	jmp	.LBB35_13
.Lfunc_end35:
	.size	_ZN4core3str11validations15next_code_point17hcc226ce6caa4a1f2E, .Lfunc_end35-_ZN4core3str11validations15next_code_point17hcc226ce6caa4a1f2E
	.cfi_endproc

	.section	.text._ZN4core3str11validations23next_code_point_reverse17h814a8b460b4f56cdE,"ax",@progbits
	.p2align	4, 0x90
	.type	_ZN4core3str11validations23next_code_point_reverse17h814a8b460b4f56cdE,@function
_ZN4core3str11validations23next_code_point_reverse17h814a8b460b4f56cdE:
	.cfi_startproc
	subq	$72, %rsp
	.cfi_def_cfa_offset 80
	movq	%rdi, 8(%rsp)
	callq	_ZN106_$LT$core..slice..iter..Iter$LT$T$GT$$u20$as$u20$core..iter..traits..double_ended..DoubleEndedIterator$GT$9next_back17h378814b8c98f41a0E
	movq	%rax, 32(%rsp)
	movq	32(%rsp), %rdx
	movl	$1, %eax
	xorl	%ecx, %ecx
	cmpq	$0, %rdx
	cmoveq	%rcx, %rax
	cmpq	$0, %rax
	jne	.LBB36_2
	movl	.L__unnamed_14(%rip), %ecx
	movl	.L__unnamed_14+4(%rip), %eax
	movl	%ecx, 16(%rsp)
	movl	%eax, 20(%rsp)
	jmp	.LBB36_3
.LBB36_2:
	movq	32(%rsp), %rax
	movq	%rax, 24(%rsp)
	movq	24(%rsp), %rax
	movb	(%rax), %al
	movb	%al, 7(%rsp)
	cmpb	$-128, %al
	jb	.LBB36_5
	jmp	.LBB36_4
.LBB36_3:
	jmp	.LBB36_19
.LBB36_4:
	movq	8(%rsp), %rdi
	callq	_ZN106_$LT$core..slice..iter..Iter$LT$T$GT$$u20$as$u20$core..iter..traits..double_ended..DoubleEndedIterator$GT$9next_back17h378814b8c98f41a0E
	movq	%rax, 48(%rsp)
	movq	48(%rsp), %rdx
	movl	$1, %eax
	xorl	%ecx, %ecx
	cmpq	$0, %rdx
	cmoveq	%rcx, %rax
	cmpq	$0, %rax
	je	.LBB36_6
	jmp	.LBB36_7
.LBB36_5:
	movb	7(%rsp), %al
	movzbl	%al, %eax
	movl	%eax, 20(%rsp)
	movl	$1, 16(%rsp)
	jmp	.LBB36_3
.LBB36_6:
	callq	_ZN4core4hint21unreachable_unchecked18precondition_check17h841dfdd43017a8e5E
	jmp	.LBB36_8
.LBB36_7:
	movq	48(%rsp), %rax
	movb	(%rax), %al
	movb	%al, 6(%rsp)
	movb	%al, %cl
	andb	$31, %cl
	movzbl	%cl, %ecx
	movl	%ecx, 44(%rsp)
	cmpb	$-64, %al
	jl	.LBB36_10
	jmp	.LBB36_9
.LBB36_8:
	ud2
.LBB36_9:
	jmp	.LBB36_11
.LBB36_10:
	movq	8(%rsp), %rdi
	callq	_ZN106_$LT$core..slice..iter..Iter$LT$T$GT$$u20$as$u20$core..iter..traits..double_ended..DoubleEndedIterator$GT$9next_back17h378814b8c98f41a0E
	movq	%rax, 56(%rsp)
	movq	56(%rsp), %rdx
	movl	$1, %eax
	xorl	%ecx, %ecx
	cmpq	$0, %rdx
	cmoveq	%rcx, %rax
	cmpq	$0, %rax
	je	.LBB36_12
	jmp	.LBB36_13
.LBB36_11:
	movb	7(%rsp), %cl
	movl	44(%rsp), %eax
	shll	$6, %eax
	andb	$63, %cl
	movzbl	%cl, %ecx
	orl	%ecx, %eax
	movl	%eax, 44(%rsp)
	movl	44(%rsp), %eax
	movl	%eax, 20(%rsp)
	movl	$1, 16(%rsp)
	jmp	.LBB36_19
.LBB36_12:
	callq	_ZN4core4hint21unreachable_unchecked18precondition_check17h841dfdd43017a8e5E
	jmp	.LBB36_8
.LBB36_13:
	movq	56(%rsp), %rax
	movb	(%rax), %al
	movb	%al, 5(%rsp)
	movb	%al, %cl
	andb	$15, %cl
	movzbl	%cl, %ecx
	movl	%ecx, 44(%rsp)
	cmpb	$-64, %al
	jl	.LBB36_15
	jmp	.LBB36_16
.LBB36_15:
	movq	8(%rsp), %rdi
	callq	_ZN106_$LT$core..slice..iter..Iter$LT$T$GT$$u20$as$u20$core..iter..traits..double_ended..DoubleEndedIterator$GT$9next_back17h378814b8c98f41a0E
	movq	%rax, 64(%rsp)
	movq	64(%rsp), %rdx
	movl	$1, %eax
	xorl	%ecx, %ecx
	cmpq	$0, %rdx
	cmoveq	%rcx, %rax
	cmpq	$0, %rax
	je	.LBB36_17
	jmp	.LBB36_18
.LBB36_16:
	movb	6(%rsp), %cl
	movl	44(%rsp), %eax
	shll	$6, %eax
	andb	$63, %cl
	movzbl	%cl, %ecx
	orl	%ecx, %eax
	movl	%eax, 44(%rsp)
	jmp	.LBB36_11
.LBB36_17:
	callq	_ZN4core4hint21unreachable_unchecked18precondition_check17h841dfdd43017a8e5E
	jmp	.LBB36_8
.LBB36_18:
	movb	5(%rsp), %cl
	movq	64(%rsp), %rax
	movb	(%rax), %al
	andb	$7, %al
	movzbl	%al, %eax
	movl	%eax, 44(%rsp)
	movl	44(%rsp), %eax
	shll	$6, %eax
	andb	$63, %cl
	movzbl	%cl, %ecx
	orl	%ecx, %eax
	movl	%eax, 44(%rsp)
	jmp	.LBB36_16
.LBB36_19:
	movl	16(%rsp), %eax
	movl	20(%rsp), %edx
	addq	$72, %rsp
	.cfi_def_cfa_offset 8
	retq
.Lfunc_end36:
	.size	_ZN4core3str11validations23next_code_point_reverse17h814a8b460b4f56cdE, .Lfunc_end36-_ZN4core3str11validations23next_code_point_reverse17h814a8b460b4f56cdE
	.cfi_endproc

	.section	".text._ZN4core3str21_$LT$impl$u20$str$GT$12trim_matches17h937578611718dfa9E","ax",@progbits
	.p2align	4, 0x90
	.type	_ZN4core3str21_$LT$impl$u20$str$GT$12trim_matches17h937578611718dfa9E,@function
_ZN4core3str21_$LT$impl$u20$str$GT$12trim_matches17h937578611718dfa9E:
.Lfunc_begin5:
	.cfi_startproc
	.cfi_personality 155, DW.ref.rust_eh_personality
	.cfi_lsda 27, .Lexception5
	subq	$184, %rsp
	.cfi_def_cfa_offset 192
	movq	%rsi, %rdx
	movq	%rdi, %rsi
	movq	%rsi, 24(%rsp)
	movq	%rdx, 32(%rsp)
	movq	$0, 48(%rsp)
	movq	$0, 56(%rsp)
	leaq	64(%rsp), %rdi
	movq	%rdi, 40(%rsp)
	callq	_ZN49_$LT$F$u20$as$u20$core..str..pattern..Pattern$GT$13into_searcher17h50d9af922b8596e6E
	movq	40(%rsp), %rsi
.Ltmp28:
	leaq	104(%rsp), %rdi
	callq	_ZN99_$LT$core..str..pattern..CharPredicateSearcher$LT$F$GT$$u20$as$u20$core..str..pattern..Searcher$GT$11next_reject17h91c119a4e79062aeE
.Ltmp29:
	jmp	.LBB37_3
.LBB37_1:
	movq	168(%rsp), %rdi
	callq	_Unwind_Resume@PLT
.LBB37_2:
.Ltmp34:
	movq	%rax, %rcx
	movl	%edx, %eax
	movq	%rcx, 168(%rsp)
	movl	%eax, 176(%rsp)
	jmp	.LBB37_1
.LBB37_3:
	cmpq	$1, 104(%rsp)
	jne	.LBB37_5
	movq	112(%rsp), %rcx
	movq	120(%rsp), %rax
	movq	%rcx, 48(%rsp)
	movq	%rax, 56(%rsp)
.LBB37_5:
.Ltmp30:
	leaq	128(%rsp), %rdi
	leaq	64(%rsp), %rsi
	callq	_ZN106_$LT$core..str..pattern..CharPredicateSearcher$LT$F$GT$$u20$as$u20$core..str..pattern..ReverseSearcher$GT$16next_reject_back17haba544a4e997c033E
.Ltmp31:
	jmp	.LBB37_6
.LBB37_6:
	cmpq	$1, 128(%rsp)
	jne	.LBB37_8
	movq	144(%rsp), %rax
	movq	%rax, 56(%rsp)
.LBB37_8:
	movq	32(%rsp), %rcx
	movq	24(%rsp), %rdx
	movq	48(%rsp), %rsi
	movq	56(%rsp), %rax
	movq	%rsi, 152(%rsp)
	movq	%rax, 160(%rsp)
	movq	152(%rsp), %rdi
	movq	160(%rsp), %rsi
.Ltmp32:
	callq	_ZN4core3str6traits108_$LT$impl$u20$core..slice..index..SliceIndex$LT$str$GT$$u20$for$u20$core..ops..range..Range$LT$usize$GT$$GT$13get_unchecked17hc8e2584f365771cdE
.Ltmp33:
	movq	%rdx, 8(%rsp)
	movq	%rax, 16(%rsp)
	jmp	.LBB37_9
.LBB37_9:
	movq	8(%rsp), %rdx
	movq	16(%rsp), %rax
	addq	$184, %rsp
	.cfi_def_cfa_offset 8
	retq
.Lfunc_end37:
	.size	_ZN4core3str21_$LT$impl$u20$str$GT$12trim_matches17h937578611718dfa9E, .Lfunc_end37-_ZN4core3str21_$LT$impl$u20$str$GT$12trim_matches17h937578611718dfa9E
	.cfi_endproc
	.section	".gcc_except_table._ZN4core3str21_$LT$impl$u20$str$GT$12trim_matches17h937578611718dfa9E","a",@progbits
	.p2align	2, 0x0
GCC_except_table37:
.Lexception5:
	.byte	255
	.byte	255
	.byte	1
	.uleb128 .Lcst_end5-.Lcst_begin5
.Lcst_begin5:
	.uleb128 .Lfunc_begin5-.Lfunc_begin5
	.uleb128 .Ltmp28-.Lfunc_begin5
	.byte	0
	.byte	0
	.uleb128 .Ltmp28-.Lfunc_begin5
	.uleb128 .Ltmp29-.Ltmp28
	.uleb128 .Ltmp34-.Lfunc_begin5
	.byte	0
	.uleb128 .Ltmp29-.Lfunc_begin5
	.uleb128 .Ltmp30-.Ltmp29
	.byte	0
	.byte	0
	.uleb128 .Ltmp30-.Lfunc_begin5
	.uleb128 .Ltmp33-.Ltmp30
	.uleb128 .Ltmp34-.Lfunc_begin5
	.byte	0
.Lcst_end5:
	.p2align	2, 0x0

	.section	".text._ZN4core3str21_$LT$impl$u20$str$GT$4trim17hac78d3519bb6ad4cE","ax",@progbits
	.p2align	4, 0x90
	.type	_ZN4core3str21_$LT$impl$u20$str$GT$4trim17hac78d3519bb6ad4cE,@function
_ZN4core3str21_$LT$impl$u20$str$GT$4trim17hac78d3519bb6ad4cE:
	.cfi_startproc
	pushq	%rax
	.cfi_def_cfa_offset 16
	callq	_ZN4core3str21_$LT$impl$u20$str$GT$12trim_matches17h937578611718dfa9E
	popq	%rcx
	.cfi_def_cfa_offset 8
	retq
.Lfunc_end38:
	.size	_ZN4core3str21_$LT$impl$u20$str$GT$4trim17hac78d3519bb6ad4cE, .Lfunc_end38-_ZN4core3str21_$LT$impl$u20$str$GT$4trim17hac78d3519bb6ad4cE
	.cfi_endproc

	.section	".text._ZN4core3str21_$LT$impl$u20$str$GT$4trim28_$u7b$$u7b$closure$u7d$$u7d$17h77c74b38e581b3d7E","ax",@progbits
	.p2align	4, 0x90
	.type	_ZN4core3str21_$LT$impl$u20$str$GT$4trim28_$u7b$$u7b$closure$u7d$$u7d$17h77c74b38e581b3d7E,@function
_ZN4core3str21_$LT$impl$u20$str$GT$4trim28_$u7b$$u7b$closure$u7d$$u7d$17h77c74b38e581b3d7E:
	.cfi_startproc
	pushq	%rax
	.cfi_def_cfa_offset 16
	movl	%esi, (%rsp)
	cmpl	$32, %esi
	jne	.LBB39_2
.LBB39_1:
	movb	$1, 7(%rsp)
	jmp	.LBB39_8
.LBB39_2:
	movl	(%rsp), %ecx
	movl	$9, %eax
	cmpl	%ecx, %eax
	jbe	.LBB39_4
.LBB39_3:
	movl	(%rsp), %eax
	cmpl	$127, %eax
	ja	.LBB39_6
	jmp	.LBB39_5
.LBB39_4:
	movl	(%rsp), %eax
	cmpl	$13, %eax
	jbe	.LBB39_1
	jmp	.LBB39_3
.LBB39_5:
	movb	$0, 7(%rsp)
	jmp	.LBB39_7
.LBB39_6:
	movl	(%rsp), %edi
	callq	_ZN4core7unicode12unicode_data11white_space6lookup17heb5bde7e59d9529bE
	andb	$1, %al
	movb	%al, 7(%rsp)
.LBB39_7:
	jmp	.LBB39_8
.LBB39_8:
	movb	7(%rsp), %al
	andb	$1, %al
	movzbl	%al, %eax
	popq	%rcx
	.cfi_def_cfa_offset 8
	retq
.Lfunc_end39:
	.size	_ZN4core3str21_$LT$impl$u20$str$GT$4trim28_$u7b$$u7b$closure$u7d$$u7d$17h77c74b38e581b3d7E, .Lfunc_end39-_ZN4core3str21_$LT$impl$u20$str$GT$4trim28_$u7b$$u7b$closure$u7d$$u7d$17h77c74b38e581b3d7E
	.cfi_endproc

	.section	".text._ZN4core3str21_$LT$impl$u20$str$GT$5parse17h5e65d4620281e29eE","ax",@progbits
	.p2align	4, 0x90
	.type	_ZN4core3str21_$LT$impl$u20$str$GT$5parse17h5e65d4620281e29eE,@function
_ZN4core3str21_$LT$impl$u20$str$GT$5parse17h5e65d4620281e29eE:
	.cfi_startproc
	pushq	%rax
	.cfi_def_cfa_offset 16
	movq	%rdi, %rax
	movq	%rax, (%rsp)
	callq	*_ZN4core3num62_$LT$impl$u20$core..str..traits..FromStr$u20$for$u20$usize$GT$8from_str17h044582bc4c5b864fE@GOTPCREL(%rip)
	movq	(%rsp), %rax
	popq	%rcx
	.cfi_def_cfa_offset 8
	retq
.Lfunc_end40:
	.size	_ZN4core3str21_$LT$impl$u20$str$GT$5parse17h5e65d4620281e29eE, .Lfunc_end40-_ZN4core3str21_$LT$impl$u20$str$GT$5parse17h5e65d4620281e29eE
	.cfi_endproc

	.section	".text._ZN4core3str6traits108_$LT$impl$u20$core..slice..index..SliceIndex$LT$str$GT$$u20$for$u20$core..ops..range..Range$LT$usize$GT$$GT$13get_unchecked17hc8e2584f365771cdE","ax",@progbits
	.p2align	4, 0x90
	.type	_ZN4core3str6traits108_$LT$impl$u20$core..slice..index..SliceIndex$LT$str$GT$$u20$for$u20$core..ops..range..Range$LT$usize$GT$$GT$13get_unchecked17hc8e2584f365771cdE,@function
_ZN4core3str6traits108_$LT$impl$u20$core..slice..index..SliceIndex$LT$str$GT$$u20$for$u20$core..ops..range..Range$LT$usize$GT$$GT$13get_unchecked17hc8e2584f365771cdE:
	.cfi_startproc
	subq	$88, %rsp
	.cfi_def_cfa_offset 96
	movq	%rdi, 8(%rsp)
	movq	%rsi, 16(%rsp)
	movq	%rdx, 24(%rsp)
	movq	%rcx, 32(%rsp)
	movq	16(%rsp), %rsi
	movq	8(%rsp), %rdi
	movq	32(%rsp), %rax
	movq	24(%rsp), %rcx
	movq	%rcx, 40(%rsp)
	movq	%rax, 48(%rsp)
	movq	48(%rsp), %rdx
	callq	_ZN4core3str6traits108_$LT$impl$u20$core..slice..index..SliceIndex$LT$str$GT$$u20$for$u20$core..ops..range..Range$LT$usize$GT$$GT$13get_unchecked18precondition_check17hd1b444c0349ad922E
	movq	8(%rsp), %rdx
	movq	16(%rsp), %rax
	movq	24(%rsp), %rcx
	addq	%rdx, %rcx
	subq	%rdx, %rax
	movq	%rcx, 72(%rsp)
	movq	%rax, 80(%rsp)
	movq	72(%rsp), %rcx
	movq	80(%rsp), %rax
	movq	%rcx, 56(%rsp)
	movq	%rax, 64(%rsp)
	movq	56(%rsp), %rax
	movq	64(%rsp), %rdx
	addq	$88, %rsp
	.cfi_def_cfa_offset 8
	retq
.Lfunc_end41:
	.size	_ZN4core3str6traits108_$LT$impl$u20$core..slice..index..SliceIndex$LT$str$GT$$u20$for$u20$core..ops..range..Range$LT$usize$GT$$GT$13get_unchecked17hc8e2584f365771cdE, .Lfunc_end41-_ZN4core3str6traits108_$LT$impl$u20$core..slice..index..SliceIndex$LT$str$GT$$u20$for$u20$core..ops..range..Range$LT$usize$GT$$GT$13get_unchecked17hc8e2584f365771cdE
	.cfi_endproc

	.section	".text._ZN4core3str6traits108_$LT$impl$u20$core..slice..index..SliceIndex$LT$str$GT$$u20$for$u20$core..ops..range..Range$LT$usize$GT$$GT$13get_unchecked18precondition_check17hd1b444c0349ad922E","ax",@progbits
	.p2align	4, 0x90
	.type	_ZN4core3str6traits108_$LT$impl$u20$core..slice..index..SliceIndex$LT$str$GT$$u20$for$u20$core..ops..range..Range$LT$usize$GT$$GT$13get_unchecked18precondition_check17hd1b444c0349ad922E,@function
_ZN4core3str6traits108_$LT$impl$u20$core..slice..index..SliceIndex$LT$str$GT$$u20$for$u20$core..ops..range..Range$LT$usize$GT$$GT$13get_unchecked18precondition_check17hd1b444c0349ad922E:
	.cfi_startproc
	subq	$24, %rsp
	.cfi_def_cfa_offset 32
	movq	%rsi, 8(%rsp)
	movq	%rdx, 16(%rsp)
	cmpq	%rdi, %rsi
	jae	.LBB42_2
.LBB42_1:
	leaq	.L__unnamed_15(%rip), %rdi
	movq	_ZN4core9panicking14panic_nounwind17h6cf0e2fad305eb86E@GOTPCREL(%rip), %rax
	movl	$102, %esi
	callq	*%rax
.LBB42_2:
	movq	8(%rsp), %rax
	movq	16(%rsp), %rcx
	cmpq	%rcx, %rax
	ja	.LBB42_1
	addq	$24, %rsp
	.cfi_def_cfa_offset 8
	retq
.Lfunc_end42:
	.size	_ZN4core3str6traits108_$LT$impl$u20$core..slice..index..SliceIndex$LT$str$GT$$u20$for$u20$core..ops..range..Range$LT$usize$GT$$GT$13get_unchecked18precondition_check17hd1b444c0349ad922E, .Lfunc_end42-_ZN4core3str6traits108_$LT$impl$u20$core..slice..index..SliceIndex$LT$str$GT$$u20$for$u20$core..ops..range..Range$LT$usize$GT$$GT$13get_unchecked18precondition_check17hd1b444c0349ad922E
	.cfi_endproc

	.section	.text._ZN4core4char7convert18from_u32_unchecked18precondition_check17h6c2bd674175859daE,"ax",@progbits
	.p2align	4, 0x90
	.type	_ZN4core4char7convert18from_u32_unchecked18precondition_check17h6c2bd674175859daE,@function
_ZN4core4char7convert18from_u32_unchecked18precondition_check17h6c2bd674175859daE:
	.cfi_startproc
	pushq	%rax
	.cfi_def_cfa_offset 16
	movl	%edi, %eax
	movl	%eax, (%rsp)
	xorl	$55296, %eax
	subl	$2048, %eax
	cmpl	$1112064, %eax
	jae	.LBB43_2
	movl	(%rsp), %eax
	movl	%eax, 4(%rsp)
	jmp	.LBB43_3
.LBB43_2:
	movl	$1114112, 4(%rsp)
.LBB43_3:
	xorl	%eax, %eax
	movl	$1, %ecx
	cmpl	$1114112, 4(%rsp)
	cmoveq	%rcx, %rax
	cmpq	$0, %rax
	jne	.LBB43_5
	popq	%rax
	.cfi_def_cfa_offset 8
	retq
.LBB43_5:
	.cfi_def_cfa_offset 16
	leaq	.L__unnamed_16(%rip), %rdi
	movq	_ZN4core9panicking14panic_nounwind17h6cf0e2fad305eb86E@GOTPCREL(%rip), %rax
	movl	$57, %esi
	callq	*%rax
.Lfunc_end43:
	.size	_ZN4core4char7convert18from_u32_unchecked18precondition_check17h6c2bd674175859daE, .Lfunc_end43-_ZN4core4char7convert18from_u32_unchecked18precondition_check17h6c2bd674175859daE
	.cfi_endproc

	.section	.text._ZN4core4hint21unreachable_unchecked18precondition_check17h841dfdd43017a8e5E,"ax",@progbits
	.p2align	4, 0x90
	.type	_ZN4core4hint21unreachable_unchecked18precondition_check17h841dfdd43017a8e5E,@function
_ZN4core4hint21unreachable_unchecked18precondition_check17h841dfdd43017a8e5E:
	.cfi_startproc
	pushq	%rax
	.cfi_def_cfa_offset 16
	leaq	.L__unnamed_17(%rip), %rdi
	movq	_ZN4core9panicking14panic_nounwind17h6cf0e2fad305eb86E@GOTPCREL(%rip), %rax
	movl	$82, %esi
	callq	*%rax
.Lfunc_end44:
	.size	_ZN4core4hint21unreachable_unchecked18precondition_check17h841dfdd43017a8e5E, .Lfunc_end44-_ZN4core4hint21unreachable_unchecked18precondition_check17h841dfdd43017a8e5E
	.cfi_endproc

	.section	".text._ZN4core4iter5range101_$LT$impl$u20$core..iter..traits..iterator..Iterator$u20$for$u20$core..ops..range..Range$LT$A$GT$$GT$4next17h6d9562d5a9664e01E","ax",@progbits
	.p2align	4, 0x90
	.type	_ZN4core4iter5range101_$LT$impl$u20$core..iter..traits..iterator..Iterator$u20$for$u20$core..ops..range..Range$LT$A$GT$$GT$4next17h6d9562d5a9664e01E,@function
_ZN4core4iter5range101_$LT$impl$u20$core..iter..traits..iterator..Iterator$u20$for$u20$core..ops..range..Range$LT$A$GT$$GT$4next17h6d9562d5a9664e01E:
	.cfi_startproc
	pushq	%rax
	.cfi_def_cfa_offset 16
	callq	_ZN89_$LT$core..ops..range..Range$LT$T$GT$$u20$as$u20$core..iter..range..RangeIteratorImpl$GT$9spec_next17h90ca90c8d33d4377E
	popq	%rcx
	.cfi_def_cfa_offset 8
	retq
.Lfunc_end45:
	.size	_ZN4core4iter5range101_$LT$impl$u20$core..iter..traits..iterator..Iterator$u20$for$u20$core..ops..range..Range$LT$A$GT$$GT$4next17h6d9562d5a9664e01E, .Lfunc_end45-_ZN4core4iter5range101_$LT$impl$u20$core..iter..traits..iterator..Iterator$u20$for$u20$core..ops..range..Range$LT$A$GT$$GT$4next17h6d9562d5a9664e01E
	.cfi_endproc

	.section	".text._ZN4core4iter5range101_$LT$impl$u20$core..iter..traits..iterator..Iterator$u20$for$u20$core..ops..range..Range$LT$A$GT$$GT$4next17hd453836dc16735a2E","ax",@progbits
	.p2align	4, 0x90
	.type	_ZN4core4iter5range101_$LT$impl$u20$core..iter..traits..iterator..Iterator$u20$for$u20$core..ops..range..Range$LT$A$GT$$GT$4next17hd453836dc16735a2E,@function
_ZN4core4iter5range101_$LT$impl$u20$core..iter..traits..iterator..Iterator$u20$for$u20$core..ops..range..Range$LT$A$GT$$GT$4next17hd453836dc16735a2E:
	.cfi_startproc
	pushq	%rax
	.cfi_def_cfa_offset 16
	callq	_ZN89_$LT$core..ops..range..Range$LT$T$GT$$u20$as$u20$core..iter..range..RangeIteratorImpl$GT$9spec_next17h3eee2bdc87fbfd97E
	popq	%rcx
	.cfi_def_cfa_offset 8
	retq
.Lfunc_end46:
	.size	_ZN4core4iter5range101_$LT$impl$u20$core..iter..traits..iterator..Iterator$u20$for$u20$core..ops..range..Range$LT$A$GT$$GT$4next17hd453836dc16735a2E, .Lfunc_end46-_ZN4core4iter5range101_$LT$impl$u20$core..iter..traits..iterator..Iterator$u20$for$u20$core..ops..range..Range$LT$A$GT$$GT$4next17hd453836dc16735a2E
	.cfi_endproc

	.section	".text._ZN4core4iter5range116_$LT$impl$u20$core..iter..traits..double_ended..DoubleEndedIterator$u20$for$u20$core..ops..range..Range$LT$A$GT$$GT$9next_back17h718982dc5e0f49ccE","ax",@progbits
	.p2align	4, 0x90
	.type	_ZN4core4iter5range116_$LT$impl$u20$core..iter..traits..double_ended..DoubleEndedIterator$u20$for$u20$core..ops..range..Range$LT$A$GT$$GT$9next_back17h718982dc5e0f49ccE,@function
_ZN4core4iter5range116_$LT$impl$u20$core..iter..traits..double_ended..DoubleEndedIterator$u20$for$u20$core..ops..range..Range$LT$A$GT$$GT$9next_back17h718982dc5e0f49ccE:
	.cfi_startproc
	pushq	%rax
	.cfi_def_cfa_offset 16
	callq	_ZN89_$LT$core..ops..range..Range$LT$T$GT$$u20$as$u20$core..iter..range..RangeIteratorImpl$GT$14spec_next_back17he40313e91cc1205aE
	popq	%rcx
	.cfi_def_cfa_offset 8
	retq
.Lfunc_end47:
	.size	_ZN4core4iter5range116_$LT$impl$u20$core..iter..traits..double_ended..DoubleEndedIterator$u20$for$u20$core..ops..range..Range$LT$A$GT$$GT$9next_back17h718982dc5e0f49ccE, .Lfunc_end47-_ZN4core4iter5range116_$LT$impl$u20$core..iter..traits..double_ended..DoubleEndedIterator$u20$for$u20$core..ops..range..Range$LT$A$GT$$GT$9next_back17h718982dc5e0f49ccE
	.cfi_endproc

	.section	.text._ZN4core4iter6traits8iterator8Iterator3rev17heca396affb779194E,"ax",@progbits
	.p2align	4, 0x90
	.type	_ZN4core4iter6traits8iterator8Iterator3rev17heca396affb779194E,@function
_ZN4core4iter6traits8iterator8Iterator3rev17heca396affb779194E:
	.cfi_startproc
	movq	%rdi, -16(%rsp)
	movq	%rsi, -8(%rsp)
	movq	-16(%rsp), %rax
	movq	-8(%rsp), %rdx
	retq
.Lfunc_end48:
	.size	_ZN4core4iter6traits8iterator8Iterator3rev17heca396affb779194E, .Lfunc_end48-_ZN4core4iter6traits8iterator8Iterator3rev17heca396affb779194E
	.cfi_endproc

	.section	".text._ZN4core5slice29_$LT$impl$u20$$u5b$T$u5d$$GT$4iter17h900f1bdef003a732E","ax",@progbits
	.p2align	4, 0x90
	.type	_ZN4core5slice29_$LT$impl$u20$$u5b$T$u5d$$GT$4iter17h900f1bdef003a732E,@function
_ZN4core5slice29_$LT$impl$u20$$u5b$T$u5d$$GT$4iter17h900f1bdef003a732E:
	.cfi_startproc
	movq	%rdi, -64(%rsp)
	movq	%rsi, -56(%rsp)
	movq	%rdi, -24(%rsp)
	movq	%rsi, -16(%rsp)
	movq	%rdi, -32(%rsp)
	movq	-64(%rsp), %rax
	movq	-56(%rsp), %rcx
	shlq	$2, %rcx
	addq	%rcx, %rax
	movq	%rax, -8(%rsp)
	movq	-8(%rsp), %rax
	movq	-32(%rsp), %rcx
	movq	%rcx, -48(%rsp)
	movq	%rax, -40(%rsp)
	movq	-48(%rsp), %rax
	movq	-40(%rsp), %rdx
	retq
.Lfunc_end49:
	.size	_ZN4core5slice29_$LT$impl$u20$$u5b$T$u5d$$GT$4iter17h900f1bdef003a732E, .Lfunc_end49-_ZN4core5slice29_$LT$impl$u20$$u5b$T$u5d$$GT$4iter17h900f1bdef003a732E
	.cfi_endproc

	.section	".text._ZN4core5slice29_$LT$impl$u20$$u5b$T$u5d$$GT$4iter17hb5adb4d3b39a9c5cE","ax",@progbits
	.p2align	4, 0x90
	.type	_ZN4core5slice29_$LT$impl$u20$$u5b$T$u5d$$GT$4iter17hb5adb4d3b39a9c5cE,@function
_ZN4core5slice29_$LT$impl$u20$$u5b$T$u5d$$GT$4iter17hb5adb4d3b39a9c5cE:
	.cfi_startproc
	movq	%rdi, -64(%rsp)
	movq	%rsi, -56(%rsp)
	movq	%rdi, -24(%rsp)
	movq	%rsi, -16(%rsp)
	movq	%rdi, -32(%rsp)
	movq	-64(%rsp), %rax
	movq	-56(%rsp), %rcx
	imulq	$28, %rcx, %rcx
	addq	%rcx, %rax
	movq	%rax, -8(%rsp)
	movq	-8(%rsp), %rax
	movq	-32(%rsp), %rcx
	movq	%rcx, -48(%rsp)
	movq	%rax, -40(%rsp)
	movq	-48(%rsp), %rax
	movq	-40(%rsp), %rdx
	retq
.Lfunc_end50:
	.size	_ZN4core5slice29_$LT$impl$u20$$u5b$T$u5d$$GT$4iter17hb5adb4d3b39a9c5cE, .Lfunc_end50-_ZN4core5slice29_$LT$impl$u20$$u5b$T$u5d$$GT$4iter17hb5adb4d3b39a9c5cE
	.cfi_endproc

	.section	.text._ZN4core5slice3raw14from_raw_parts18precondition_check17h56775564f3e3385bE,"ax",@progbits
	.p2align	4, 0x90
	.type	_ZN4core5slice3raw14from_raw_parts18precondition_check17h56775564f3e3385bE,@function
_ZN4core5slice3raw14from_raw_parts18precondition_check17h56775564f3e3385bE:
.Lfunc_begin6:
	.cfi_startproc
	.cfi_personality 155, DW.ref.rust_eh_personality
	.cfi_lsda 27, .Lexception6
	subq	$56, %rsp
	.cfi_def_cfa_offset 64
	movq	%rdx, 16(%rsp)
	movq	%rsi, %rax
	movq	16(%rsp), %rsi
	movq	%rax, 24(%rsp)
	movq	%rcx, 32(%rsp)
.Ltmp35:
	callq	_ZN4core10intrinsics23is_aligned_and_not_null17hd119284fbc89f314E
.Ltmp36:
	movb	%al, 47(%rsp)
	jmp	.LBB51_2
.LBB51_1:
.Ltmp39:
	movq	_ZN4core9panicking19panic_cannot_unwind17h2ca896690bb64712E@GOTPCREL(%rip), %rax
	callq	*%rax
.LBB51_2:
	movb	47(%rsp), %al
	testb	$1, %al
	jne	.LBB51_4
	jmp	.LBB51_3
.LBB51_3:
	jmp	.LBB51_5
.LBB51_4:
	movq	24(%rsp), %rax
	cmpq	$0, %rax
	sete	%cl
	movb	%cl, 15(%rsp)
	cmpq	$0, %rax
	je	.LBB51_6
	jmp	.LBB51_7
.LBB51_5:
	leaq	.L__unnamed_18(%rip), %rdi
	movq	_ZN4core9panicking14panic_nounwind17h6cf0e2fad305eb86E@GOTPCREL(%rip), %rax
	movl	$162, %esi
	callq	*%rax
.LBB51_6:
	movq	$-1, 48(%rsp)
	jmp	.LBB51_8
.LBB51_7:
	movb	15(%rsp), %al
	testb	$1, %al
	jne	.LBB51_10
	jmp	.LBB51_9
.LBB51_8:
	movq	32(%rsp), %rax
	cmpq	48(%rsp), %rax
	jbe	.LBB51_13
	jmp	.LBB51_12
.LBB51_9:
	movq	24(%rsp), %rcx
	movabsq	$9223372036854775807, %rax
	xorl	%edx, %edx
	divq	%rcx
	movq	%rax, 48(%rsp)
	jmp	.LBB51_8
.LBB51_10:
.Ltmp37:
	leaq	str.0(%rip), %rdi
	leaq	.L__unnamed_19(%rip), %rdx
	movq	_ZN4core9panicking5panic17h8ddd58dc57c2dc00E@GOTPCREL(%rip), %rax
	movl	$25, %esi
	callq	*%rax
.Ltmp38:
	jmp	.LBB51_11
.LBB51_11:
	ud2
.LBB51_12:
	jmp	.LBB51_5
.LBB51_13:
	addq	$56, %rsp
	.cfi_def_cfa_offset 8
	retq
.Lfunc_end51:
	.size	_ZN4core5slice3raw14from_raw_parts18precondition_check17h56775564f3e3385bE, .Lfunc_end51-_ZN4core5slice3raw14from_raw_parts18precondition_check17h56775564f3e3385bE
	.cfi_endproc
	.section	.gcc_except_table._ZN4core5slice3raw14from_raw_parts18precondition_check17h56775564f3e3385bE,"a",@progbits
	.p2align	2, 0x0
GCC_except_table51:
.Lexception6:
	.byte	255
	.byte	155
	.uleb128 .Lttbase3-.Lttbaseref3
.Lttbaseref3:
	.byte	1
	.uleb128 .Lcst_end6-.Lcst_begin6
.Lcst_begin6:
	.uleb128 .Ltmp35-.Lfunc_begin6
	.uleb128 .Ltmp36-.Ltmp35
	.uleb128 .Ltmp39-.Lfunc_begin6
	.byte	1
	.uleb128 .Ltmp36-.Lfunc_begin6
	.uleb128 .Ltmp37-.Ltmp36
	.byte	0
	.byte	0
	.uleb128 .Ltmp37-.Lfunc_begin6
	.uleb128 .Ltmp38-.Ltmp37
	.uleb128 .Ltmp39-.Lfunc_begin6
	.byte	1
.Lcst_end6:
	.byte	127
	.byte	0
	.p2align	2, 0x0
.Lttbase3:
	.byte	0
	.p2align	2, 0x0

	.section	".text._ZN4core6result19Result$LT$T$C$E$GT$6expect17h7c089fd4fde8d7cbE","ax",@progbits
	.p2align	4, 0x90
	.type	_ZN4core6result19Result$LT$T$C$E$GT$6expect17h7c089fd4fde8d7cbE,@function
_ZN4core6result19Result$LT$T$C$E$GT$6expect17h7c089fd4fde8d7cbE:
.Lfunc_begin7:
	.cfi_startproc
	.cfi_personality 155, DW.ref.rust_eh_personality
	.cfi_lsda 27, .Lexception7
	subq	$72, %rsp
	.cfi_def_cfa_offset 80
	movq	%rdx, 8(%rsp)
	movq	%rcx, 16(%rsp)
	movq	%r8, 24(%rsp)
	movq	%rdi, 32(%rsp)
	movq	%rsi, 40(%rsp)
	cmpq	$0, 32(%rsp)
	jne	.LBB52_2
	movq	40(%rsp), %rax
	addq	$72, %rsp
	.cfi_def_cfa_offset 8
	retq
.LBB52_2:
	.cfi_def_cfa_offset 80
	movq	24(%rsp), %r8
	movq	16(%rsp), %rsi
	movq	8(%rsp), %rdi
	movq	40(%rsp), %rax
	movq	%rax, 48(%rsp)
.Ltmp40:
	leaq	.L__unnamed_20(%rip), %rcx
	movq	_ZN4core6result13unwrap_failed17h5119205a73b72b0dE@GOTPCREL(%rip), %rax
	leaq	48(%rsp), %rdx
	callq	*%rax
.Ltmp41:
	jmp	.LBB52_5
.LBB52_3:
.Ltmp43:
	leaq	48(%rsp), %rdi
	callq	_ZN4core3ptr42drop_in_place$LT$std..io..error..Error$GT$17he3e7eb901fd8dfc5E
.Ltmp44:
	jmp	.LBB52_7
.LBB52_4:
.Ltmp42:
	movq	%rax, %rcx
	movl	%edx, %eax
	movq	%rcx, 56(%rsp)
	movl	%eax, 64(%rsp)
	jmp	.LBB52_3
.LBB52_5:
	ud2
.LBB52_6:
.Ltmp45:
	movq	_ZN4core9panicking16panic_in_cleanup17hc8e2b17e1b6d1381E@GOTPCREL(%rip), %rax
	callq	*%rax
.LBB52_7:
	movq	56(%rsp), %rdi
	callq	_Unwind_Resume@PLT
.Lfunc_end52:
	.size	_ZN4core6result19Result$LT$T$C$E$GT$6expect17h7c089fd4fde8d7cbE, .Lfunc_end52-_ZN4core6result19Result$LT$T$C$E$GT$6expect17h7c089fd4fde8d7cbE
	.cfi_endproc
	.section	".gcc_except_table._ZN4core6result19Result$LT$T$C$E$GT$6expect17h7c089fd4fde8d7cbE","a",@progbits
	.p2align	2, 0x0
GCC_except_table52:
.Lexception7:
	.byte	255
	.byte	155
	.uleb128 .Lttbase4-.Lttbaseref4
.Lttbaseref4:
	.byte	1
	.uleb128 .Lcst_end7-.Lcst_begin7
.Lcst_begin7:
	.uleb128 .Ltmp40-.Lfunc_begin7
	.uleb128 .Ltmp41-.Ltmp40
	.uleb128 .Ltmp42-.Lfunc_begin7
	.byte	0
	.uleb128 .Ltmp43-.Lfunc_begin7
	.uleb128 .Ltmp44-.Ltmp43
	.uleb128 .Ltmp45-.Lfunc_begin7
	.byte	1
	.uleb128 .Ltmp44-.Lfunc_begin7
	.uleb128 .Lfunc_end52-.Ltmp44
	.byte	0
	.byte	0
.Lcst_end7:
	.byte	127
	.byte	0
	.p2align	2, 0x0
.Lttbase4:
	.byte	0
	.p2align	2, 0x0

	.section	.text._ZN4core7unicode12unicode_data11white_space6lookup17heb5bde7e59d9529bE,"ax",@progbits
	.p2align	4, 0x90
	.type	_ZN4core7unicode12unicode_data11white_space6lookup17heb5bde7e59d9529bE,@function
_ZN4core7unicode12unicode_data11white_space6lookup17heb5bde7e59d9529bE:
	.cfi_startproc
	subq	$40, %rsp
	.cfi_def_cfa_offset 48
	movl	%edi, 28(%rsp)
	shrl	$8, %edi
	movl	%edi, 32(%rsp)
	testl	%edi, %edi
	je	.LBB53_2
	jmp	.LBB53_11
.LBB53_11:
	movl	32(%rsp), %eax
	subl	$22, %eax
	je	.LBB53_3
	jmp	.LBB53_12
.LBB53_12:
	movl	32(%rsp), %eax
	subl	$32, %eax
	je	.LBB53_4
	jmp	.LBB53_13
.LBB53_13:
	movl	32(%rsp), %eax
	subl	$48, %eax
	je	.LBB53_5
	jmp	.LBB53_1
.LBB53_1:
	movb	$0, 39(%rsp)
	jmp	.LBB53_8
.LBB53_2:
	movl	28(%rsp), %eax
	movl	%eax, %eax
	andq	$255, %rax
	movq	%rax, 16(%rsp)
	cmpq	$256, %rax
	setb	%al
	testb	$1, %al
	jne	.LBB53_6
	jmp	.LBB53_7
.LBB53_3:
	movl	28(%rsp), %eax
	cmpl	$5760, %eax
	sete	%al
	andb	$1, %al
	movb	%al, 39(%rsp)
	jmp	.LBB53_8
.LBB53_4:
	movl	28(%rsp), %eax
	movl	%eax, %eax
	andq	$255, %rax
	movq	%rax, 8(%rsp)
	cmpq	$256, %rax
	setb	%al
	testb	$1, %al
	jne	.LBB53_9
	jmp	.LBB53_10
.LBB53_5:
	movl	28(%rsp), %eax
	cmpl	$12288, %eax
	sete	%al
	andb	$1, %al
	movb	%al, 39(%rsp)
	jmp	.LBB53_8
.LBB53_6:
	movq	16(%rsp), %rcx
	movq	_ZN4core7unicode12unicode_data11white_space14WHITESPACE_MAP17h878956cf5aa88961E@GOTPCREL(%rip), %rax
	movb	(%rax,%rcx), %al
	andb	$1, %al
	cmpb	$0, %al
	setne	%al
	andb	$1, %al
	movb	%al, 39(%rsp)
	jmp	.LBB53_8
.LBB53_7:
	movq	16(%rsp), %rdi
	leaq	.L__unnamed_21(%rip), %rdx
	movq	_ZN4core9panicking18panic_bounds_check17h9bb22f08a42e1ac8E@GOTPCREL(%rip), %rax
	movl	$256, %esi
	callq	*%rax
.LBB53_8:
	movb	39(%rsp), %al
	andb	$1, %al
	movzbl	%al, %eax
	addq	$40, %rsp
	.cfi_def_cfa_offset 8
	retq
.LBB53_9:
	.cfi_def_cfa_offset 48
	movq	8(%rsp), %rcx
	movq	_ZN4core7unicode12unicode_data11white_space14WHITESPACE_MAP17h878956cf5aa88961E@GOTPCREL(%rip), %rax
	movb	(%rax,%rcx), %al
	andb	$2, %al
	cmpb	$0, %al
	setne	%al
	andb	$1, %al
	movb	%al, 39(%rsp)
	jmp	.LBB53_8
.LBB53_10:
	movq	8(%rsp), %rdi
	leaq	.L__unnamed_22(%rip), %rdx
	movq	_ZN4core9panicking18panic_bounds_check17h9bb22f08a42e1ac8E@GOTPCREL(%rip), %rax
	movl	$256, %esi
	callq	*%rax
.Lfunc_end53:
	.size	_ZN4core7unicode12unicode_data11white_space6lookup17heb5bde7e59d9529bE, .Lfunc_end53-_ZN4core7unicode12unicode_data11white_space6lookup17heb5bde7e59d9529bE
	.cfi_endproc

	.section	".text._ZN53_$LT$F$u20$as$u20$core..str..pattern..MultiCharEq$GT$7matches17haab52f5d3238ee4aE","ax",@progbits
	.p2align	4, 0x90
	.type	_ZN53_$LT$F$u20$as$u20$core..str..pattern..MultiCharEq$GT$7matches17haab52f5d3238ee4aE,@function
_ZN53_$LT$F$u20$as$u20$core..str..pattern..MultiCharEq$GT$7matches17haab52f5d3238ee4aE:
	.cfi_startproc
	pushq	%rax
	.cfi_def_cfa_offset 16
	movl	%esi, 4(%rsp)
	movl	4(%rsp), %esi
	callq	_ZN4core3str21_$LT$impl$u20$str$GT$4trim28_$u7b$$u7b$closure$u7d$$u7d$17h77c74b38e581b3d7E
	andb	$1, %al
	movzbl	%al, %eax
	popq	%rcx
	.cfi_def_cfa_offset 8
	retq
.Lfunc_end54:
	.size	_ZN53_$LT$F$u20$as$u20$core..str..pattern..MultiCharEq$GT$7matches17haab52f5d3238ee4aE, .Lfunc_end54-_ZN53_$LT$F$u20$as$u20$core..str..pattern..MultiCharEq$GT$7matches17haab52f5d3238ee4aE
	.cfi_endproc

	.section	".text._ZN54_$LT$$LP$$RP$$u20$as$u20$std..process..Termination$GT$6report17h3237b4cc4f588bd4E","ax",@progbits
	.p2align	4, 0x90
	.type	_ZN54_$LT$$LP$$RP$$u20$as$u20$std..process..Termination$GT$6report17h3237b4cc4f588bd4E,@function
_ZN54_$LT$$LP$$RP$$u20$as$u20$std..process..Termination$GT$6report17h3237b4cc4f588bd4E:
	.cfi_startproc
	xorl	%eax, %eax
	retq
.Lfunc_end55:
	.size	_ZN54_$LT$$LP$$RP$$u20$as$u20$std..process..Termination$GT$6report17h3237b4cc4f588bd4E, .Lfunc_end55-_ZN54_$LT$$LP$$RP$$u20$as$u20$std..process..Termination$GT$6report17h3237b4cc4f588bd4E
	.cfi_endproc

	.section	.text._ZN5alloc6string6String3new17hd262d99b8d83ab53E,"ax",@progbits
	.p2align	4, 0x90
	.type	_ZN5alloc6string6String3new17hd262d99b8d83ab53E,@function
_ZN5alloc6string6String3new17hd262d99b8d83ab53E:
	.cfi_startproc
	movq	%rdi, %rax
	movq	$0, -24(%rsp)
	movl	$1, %ecx
	movq	%rcx, -16(%rsp)
	movq	$0, -8(%rsp)
	movq	-24(%rsp), %rcx
	movq	%rcx, (%rdi)
	movq	-16(%rsp), %rcx
	movq	%rcx, 8(%rdi)
	movq	-8(%rsp), %rcx
	movq	%rcx, 16(%rdi)
	retq
.Lfunc_end56:
	.size	_ZN5alloc6string6String3new17hd262d99b8d83ab53E, .Lfunc_end56-_ZN5alloc6string6String3new17hd262d99b8d83ab53E
	.cfi_endproc

	.section	".text._ZN5alloc7raw_vec19RawVec$LT$T$C$A$GT$14current_memory17h1f67a95ebdd8ae3bE","ax",@progbits
	.p2align	4, 0x90
	.type	_ZN5alloc7raw_vec19RawVec$LT$T$C$A$GT$14current_memory17h1f67a95ebdd8ae3bE,@function
_ZN5alloc7raw_vec19RawVec$LT$T$C$A$GT$14current_memory17h1f67a95ebdd8ae3bE:
	.cfi_startproc
	movq	%rsi, -72(%rsp)
	movq	%rdi, -64(%rsp)
	movq	%rdi, -56(%rsp)
	movq	-72(%rsp), %rax
	cmpq	$0, (%rax)
	jne	.LBB57_3
	jmp	.LBB57_4
.LBB57_3:
	movq	-64(%rsp), %rax
	movq	-72(%rsp), %rcx
	movq	(%rcx), %rdx
	shlq	$0, %rdx
	movq	%rdx, -40(%rsp)
	movq	$1, -48(%rsp)
	movq	8(%rcx), %rcx
	movq	%rcx, -8(%rsp)
	movq	-8(%rsp), %rcx
	movq	%rcx, -32(%rsp)
	movq	-48(%rsp), %rdx
	movq	-40(%rsp), %rcx
	movq	%rdx, -24(%rsp)
	movq	%rcx, -16(%rsp)
	movq	-32(%rsp), %rcx
	movq	%rcx, (%rax)
	movq	-24(%rsp), %rcx
	movq	%rcx, 8(%rax)
	movq	-16(%rsp), %rcx
	movq	%rcx, 16(%rax)
	jmp	.LBB57_5
.LBB57_4:
	movq	-64(%rsp), %rax
	movq	$0, 8(%rax)
.LBB57_5:
	movq	-56(%rsp), %rax
	retq
.Lfunc_end57:
	.size	_ZN5alloc7raw_vec19RawVec$LT$T$C$A$GT$14current_memory17h1f67a95ebdd8ae3bE, .Lfunc_end57-_ZN5alloc7raw_vec19RawVec$LT$T$C$A$GT$14current_memory17h1f67a95ebdd8ae3bE
	.cfi_endproc

	.section	".text._ZN63_$LT$I$u20$as$u20$core..iter..traits..collect..IntoIterator$GT$9into_iter17h40b636460a34d9c3E","ax",@progbits
	.p2align	4, 0x90
	.type	_ZN63_$LT$I$u20$as$u20$core..iter..traits..collect..IntoIterator$GT$9into_iter17h40b636460a34d9c3E,@function
_ZN63_$LT$I$u20$as$u20$core..iter..traits..collect..IntoIterator$GT$9into_iter17h40b636460a34d9c3E:
	.cfi_startproc
	movq	%rsi, %rdx
	movq	%rdi, %rax
	retq
.Lfunc_end58:
	.size	_ZN63_$LT$I$u20$as$u20$core..iter..traits..collect..IntoIterator$GT$9into_iter17h40b636460a34d9c3E, .Lfunc_end58-_ZN63_$LT$I$u20$as$u20$core..iter..traits..collect..IntoIterator$GT$9into_iter17h40b636460a34d9c3E
	.cfi_endproc

	.section	".text._ZN63_$LT$I$u20$as$u20$core..iter..traits..collect..IntoIterator$GT$9into_iter17ha648347c0a222f0dE","ax",@progbits
	.p2align	4, 0x90
	.type	_ZN63_$LT$I$u20$as$u20$core..iter..traits..collect..IntoIterator$GT$9into_iter17ha648347c0a222f0dE,@function
_ZN63_$LT$I$u20$as$u20$core..iter..traits..collect..IntoIterator$GT$9into_iter17ha648347c0a222f0dE:
	.cfi_startproc
	movq	%rsi, %rdx
	movq	%rdi, %rax
	retq
.Lfunc_end59:
	.size	_ZN63_$LT$I$u20$as$u20$core..iter..traits..collect..IntoIterator$GT$9into_iter17ha648347c0a222f0dE, .Lfunc_end59-_ZN63_$LT$I$u20$as$u20$core..iter..traits..collect..IntoIterator$GT$9into_iter17ha648347c0a222f0dE
	.cfi_endproc

	.section	".text._ZN63_$LT$I$u20$as$u20$core..iter..traits..collect..IntoIterator$GT$9into_iter17hab4aaa1de6c35484E","ax",@progbits
	.p2align	4, 0x90
	.type	_ZN63_$LT$I$u20$as$u20$core..iter..traits..collect..IntoIterator$GT$9into_iter17hab4aaa1de6c35484E,@function
_ZN63_$LT$I$u20$as$u20$core..iter..traits..collect..IntoIterator$GT$9into_iter17hab4aaa1de6c35484E:
	.cfi_startproc
	movq	%rsi, %rdx
	movq	%rdi, %rax
	retq
.Lfunc_end60:
	.size	_ZN63_$LT$I$u20$as$u20$core..iter..traits..collect..IntoIterator$GT$9into_iter17hab4aaa1de6c35484E, .Lfunc_end60-_ZN63_$LT$I$u20$as$u20$core..iter..traits..collect..IntoIterator$GT$9into_iter17hab4aaa1de6c35484E
	.cfi_endproc

	.section	".text._ZN63_$LT$I$u20$as$u20$core..iter..traits..collect..IntoIterator$GT$9into_iter17hb28216513bfcd19bE","ax",@progbits
	.p2align	4, 0x90
	.type	_ZN63_$LT$I$u20$as$u20$core..iter..traits..collect..IntoIterator$GT$9into_iter17hb28216513bfcd19bE,@function
_ZN63_$LT$I$u20$as$u20$core..iter..traits..collect..IntoIterator$GT$9into_iter17hb28216513bfcd19bE:
	.cfi_startproc
	movq	%rsi, %rdx
	movq	%rdi, %rax
	retq
.Lfunc_end61:
	.size	_ZN63_$LT$I$u20$as$u20$core..iter..traits..collect..IntoIterator$GT$9into_iter17hb28216513bfcd19bE, .Lfunc_end61-_ZN63_$LT$I$u20$as$u20$core..iter..traits..collect..IntoIterator$GT$9into_iter17hb28216513bfcd19bE
	.cfi_endproc

	.section	".text._ZN63_$LT$I$u20$as$u20$core..iter..traits..collect..IntoIterator$GT$9into_iter17heb4eadcc8c7e38f4E","ax",@progbits
	.p2align	4, 0x90
	.type	_ZN63_$LT$I$u20$as$u20$core..iter..traits..collect..IntoIterator$GT$9into_iter17heb4eadcc8c7e38f4E,@function
_ZN63_$LT$I$u20$as$u20$core..iter..traits..collect..IntoIterator$GT$9into_iter17heb4eadcc8c7e38f4E:
	.cfi_startproc
	movq	%rsi, %rdx
	movq	%rdi, %rax
	retq
.Lfunc_end62:
	.size	_ZN63_$LT$I$u20$as$u20$core..iter..traits..collect..IntoIterator$GT$9into_iter17heb4eadcc8c7e38f4E, .Lfunc_end62-_ZN63_$LT$I$u20$as$u20$core..iter..traits..collect..IntoIterator$GT$9into_iter17heb4eadcc8c7e38f4E
	.cfi_endproc

	.section	".text._ZN63_$LT$alloc..alloc..Global$u20$as$u20$core..alloc..Allocator$GT$10deallocate17h3c69eb213bc42924E","ax",@progbits
	.p2align	4, 0x90
	.type	_ZN63_$LT$alloc..alloc..Global$u20$as$u20$core..alloc..Allocator$GT$10deallocate17h3c69eb213bc42924E,@function
_ZN63_$LT$alloc..alloc..Global$u20$as$u20$core..alloc..Allocator$GT$10deallocate17h3c69eb213bc42924E:
	.cfi_startproc
	subq	$56, %rsp
	.cfi_def_cfa_offset 64
	movq	%rsi, 8(%rsp)
	movq	%rdx, 16(%rsp)
	movq	%rcx, 24(%rsp)
	cmpq	$0, 24(%rsp)
	jne	.LBB63_2
	jmp	.LBB63_3
.LBB63_2:
	movq	8(%rsp), %rdi
	movq	16(%rsp), %rcx
	movq	24(%rsp), %rax
	movq	%rcx, 32(%rsp)
	movq	%rax, 40(%rsp)
	movq	40(%rsp), %rsi
	movq	32(%rsp), %rax
	movq	%rax, 48(%rsp)
	movq	48(%rsp), %rdx
	callq	*__rust_dealloc@GOTPCREL(%rip)
.LBB63_3:
	addq	$56, %rsp
	.cfi_def_cfa_offset 8
	retq
.Lfunc_end63:
	.size	_ZN63_$LT$alloc..alloc..Global$u20$as$u20$core..alloc..Allocator$GT$10deallocate17h3c69eb213bc42924E, .Lfunc_end63-_ZN63_$LT$alloc..alloc..Global$u20$as$u20$core..alloc..Allocator$GT$10deallocate17h3c69eb213bc42924E
	.cfi_endproc

	.section	".text._ZN65_$LT$alloc..string..String$u20$as$u20$core..ops..deref..Deref$GT$5deref17h396ed41519955b79E","ax",@progbits
	.p2align	4, 0x90
	.type	_ZN65_$LT$alloc..string..String$u20$as$u20$core..ops..deref..Deref$GT$5deref17h396ed41519955b79E,@function
_ZN65_$LT$alloc..string..String$u20$as$u20$core..ops..deref..Deref$GT$5deref17h396ed41519955b79E:
	.cfi_startproc
	pushq	%rax
	.cfi_def_cfa_offset 16
	callq	_ZN72_$LT$alloc..vec..Vec$LT$T$C$A$GT$$u20$as$u20$core..ops..deref..Deref$GT$5deref17h5cd2236b561f3eb5E
	popq	%rcx
	.cfi_def_cfa_offset 8
	retq
.Lfunc_end64:
	.size	_ZN65_$LT$alloc..string..String$u20$as$u20$core..ops..deref..Deref$GT$5deref17h396ed41519955b79E, .Lfunc_end64-_ZN65_$LT$alloc..string..String$u20$as$u20$core..ops..deref..Deref$GT$5deref17h396ed41519955b79E
	.cfi_endproc

	.section	".text._ZN70_$LT$alloc..vec..Vec$LT$T$C$A$GT$$u20$as$u20$core..ops..drop..Drop$GT$4drop17hc519b19a65cdeb50E","ax",@progbits
	.p2align	4, 0x90
	.type	_ZN70_$LT$alloc..vec..Vec$LT$T$C$A$GT$$u20$as$u20$core..ops..drop..Drop$GT$4drop17hc519b19a65cdeb50E,@function
_ZN70_$LT$alloc..vec..Vec$LT$T$C$A$GT$$u20$as$u20$core..ops..drop..Drop$GT$4drop17hc519b19a65cdeb50E:
	.cfi_startproc
	movq	8(%rdi), %rcx
	movq	16(%rdi), %rax
	movq	%rcx, -16(%rsp)
	movq	%rax, -8(%rsp)
	movq	-16(%rsp), %rcx
	movq	-8(%rsp), %rax
	movq	%rcx, -32(%rsp)
	movq	%rax, -24(%rsp)
	retq
.Lfunc_end65:
	.size	_ZN70_$LT$alloc..vec..Vec$LT$T$C$A$GT$$u20$as$u20$core..ops..drop..Drop$GT$4drop17hc519b19a65cdeb50E, .Lfunc_end65-_ZN70_$LT$alloc..vec..Vec$LT$T$C$A$GT$$u20$as$u20$core..ops..drop..Drop$GT$4drop17hc519b19a65cdeb50E
	.cfi_endproc

	.section	".text._ZN72_$LT$alloc..boxed..Box$LT$T$C$A$GT$$u20$as$u20$core..ops..drop..Drop$GT$4drop17h13f3493bae763d79E","ax",@progbits
	.p2align	4, 0x90
	.type	_ZN72_$LT$alloc..boxed..Box$LT$T$C$A$GT$$u20$as$u20$core..ops..drop..Drop$GT$4drop17h13f3493bae763d79E,@function
_ZN72_$LT$alloc..boxed..Box$LT$T$C$A$GT$$u20$as$u20$core..ops..drop..Drop$GT$4drop17h13f3493bae763d79E:
	.cfi_startproc
	subq	$56, %rsp
	.cfi_def_cfa_offset 64
	movq	%rdi, (%rsp)
	movq	(%rdi), %rax
	movq	%rax, 8(%rsp)
	movq	8(%rdi), %rax
	movq	8(%rax), %rcx
	movq	%rcx, 40(%rsp)
	movq	40(%rsp), %rcx
	movq	16(%rax), %rax
	movq	%rax, 48(%rsp)
	movq	48(%rsp), %rax
	movq	%rcx, 24(%rsp)
	movq	%rax, 16(%rsp)
	cmpq	$0, 24(%rsp)
	jne	.LBB66_2
	jmp	.LBB66_3
.LBB66_2:
	movq	8(%rsp), %rax
	movq	(%rsp), %rdi
	addq	$16, %rdi
	movq	%rax, 32(%rsp)
	movq	16(%rsp), %rdx
	movq	24(%rsp), %rcx
	movq	32(%rsp), %rsi
	callq	_ZN63_$LT$alloc..alloc..Global$u20$as$u20$core..alloc..Allocator$GT$10deallocate17h3c69eb213bc42924E
.LBB66_3:
	addq	$56, %rsp
	.cfi_def_cfa_offset 8
	retq
.Lfunc_end66:
	.size	_ZN72_$LT$alloc..boxed..Box$LT$T$C$A$GT$$u20$as$u20$core..ops..drop..Drop$GT$4drop17h13f3493bae763d79E, .Lfunc_end66-_ZN72_$LT$alloc..boxed..Box$LT$T$C$A$GT$$u20$as$u20$core..ops..drop..Drop$GT$4drop17h13f3493bae763d79E
	.cfi_endproc

	.section	".text._ZN72_$LT$alloc..boxed..Box$LT$T$C$A$GT$$u20$as$u20$core..ops..drop..Drop$GT$4drop17h6f9a1ebfc461ec5bE","ax",@progbits
	.p2align	4, 0x90
	.type	_ZN72_$LT$alloc..boxed..Box$LT$T$C$A$GT$$u20$as$u20$core..ops..drop..Drop$GT$4drop17h6f9a1ebfc461ec5bE,@function
_ZN72_$LT$alloc..boxed..Box$LT$T$C$A$GT$$u20$as$u20$core..ops..drop..Drop$GT$4drop17h6f9a1ebfc461ec5bE:
	.cfi_startproc
	subq	$56, %rsp
	.cfi_def_cfa_offset 64
	movq	%rdi, (%rsp)
	movq	(%rdi), %rax
	movq	%rax, 8(%rsp)
	movq	$24, 40(%rsp)
	movq	40(%rsp), %rcx
	movq	$8, 48(%rsp)
	movq	48(%rsp), %rax
	movq	%rcx, 24(%rsp)
	movq	%rax, 16(%rsp)
	cmpq	$0, 24(%rsp)
	jne	.LBB67_2
	jmp	.LBB67_3
.LBB67_2:
	movq	8(%rsp), %rax
	movq	(%rsp), %rdi
	addq	$8, %rdi
	movq	%rax, 32(%rsp)
	movq	16(%rsp), %rdx
	movq	24(%rsp), %rcx
	movq	32(%rsp), %rsi
	callq	_ZN63_$LT$alloc..alloc..Global$u20$as$u20$core..alloc..Allocator$GT$10deallocate17h3c69eb213bc42924E
.LBB67_3:
	addq	$56, %rsp
	.cfi_def_cfa_offset 8
	retq
.Lfunc_end67:
	.size	_ZN72_$LT$alloc..boxed..Box$LT$T$C$A$GT$$u20$as$u20$core..ops..drop..Drop$GT$4drop17h6f9a1ebfc461ec5bE, .Lfunc_end67-_ZN72_$LT$alloc..boxed..Box$LT$T$C$A$GT$$u20$as$u20$core..ops..drop..Drop$GT$4drop17h6f9a1ebfc461ec5bE
	.cfi_endproc

	.section	".text._ZN72_$LT$alloc..vec..Vec$LT$T$C$A$GT$$u20$as$u20$core..ops..deref..Deref$GT$5deref17h5cd2236b561f3eb5E","ax",@progbits
	.p2align	4, 0x90
	.type	_ZN72_$LT$alloc..vec..Vec$LT$T$C$A$GT$$u20$as$u20$core..ops..deref..Deref$GT$5deref17h5cd2236b561f3eb5E,@function
_ZN72_$LT$alloc..vec..Vec$LT$T$C$A$GT$$u20$as$u20$core..ops..deref..Deref$GT$5deref17h5cd2236b561f3eb5E:
	.cfi_startproc
	subq	$56, %rsp
	.cfi_def_cfa_offset 64
	movq	8(%rdi), %rax
	movq	%rax, 8(%rsp)
	movq	16(%rdi), %rax
	movq	%rax, 16(%rsp)
	movq	16(%rsp), %rcx
	movq	8(%rsp), %rdi
	movl	$1, %edx
	movq	%rdx, %rsi
	callq	_ZN4core5slice3raw14from_raw_parts18precondition_check17h56775564f3e3385bE
	movq	16(%rsp), %rax
	movq	8(%rsp), %rcx
	movq	%rcx, 40(%rsp)
	movq	%rax, 48(%rsp)
	movq	40(%rsp), %rcx
	movq	48(%rsp), %rax
	movq	%rcx, 24(%rsp)
	movq	%rax, 32(%rsp)
	movq	24(%rsp), %rax
	movq	32(%rsp), %rdx
	addq	$56, %rsp
	.cfi_def_cfa_offset 8
	retq
.Lfunc_end68:
	.size	_ZN72_$LT$alloc..vec..Vec$LT$T$C$A$GT$$u20$as$u20$core..ops..deref..Deref$GT$5deref17h5cd2236b561f3eb5E, .Lfunc_end68-_ZN72_$LT$alloc..vec..Vec$LT$T$C$A$GT$$u20$as$u20$core..ops..deref..Deref$GT$5deref17h5cd2236b561f3eb5E
	.cfi_endproc

	.section	".text._ZN77_$LT$alloc..raw_vec..RawVec$LT$T$C$A$GT$$u20$as$u20$core..ops..drop..Drop$GT$4drop17h577ef7952f46237cE","ax",@progbits
	.p2align	4, 0x90
	.type	_ZN77_$LT$alloc..raw_vec..RawVec$LT$T$C$A$GT$$u20$as$u20$core..ops..drop..Drop$GT$4drop17h577ef7952f46237cE,@function
_ZN77_$LT$alloc..raw_vec..RawVec$LT$T$C$A$GT$$u20$as$u20$core..ops..drop..Drop$GT$4drop17h577ef7952f46237cE:
	.cfi_startproc
	subq	$40, %rsp
	.cfi_def_cfa_offset 48
	movq	%rdi, %rsi
	movq	%rsi, 8(%rsp)
	leaq	16(%rsp), %rdi
	callq	_ZN5alloc7raw_vec19RawVec$LT$T$C$A$GT$14current_memory17h1f67a95ebdd8ae3bE
	movl	$1, %eax
	xorl	%ecx, %ecx
	cmpq	$0, 24(%rsp)
	cmoveq	%rcx, %rax
	cmpq	$1, %rax
	jne	.LBB69_2
	movq	8(%rsp), %rdi
	movq	16(%rsp), %rsi
	movq	24(%rsp), %rdx
	movq	32(%rsp), %rcx
	addq	$16, %rdi
	callq	_ZN63_$LT$alloc..alloc..Global$u20$as$u20$core..alloc..Allocator$GT$10deallocate17h3c69eb213bc42924E
.LBB69_2:
	addq	$40, %rsp
	.cfi_def_cfa_offset 8
	retq
.Lfunc_end69:
	.size	_ZN77_$LT$alloc..raw_vec..RawVec$LT$T$C$A$GT$$u20$as$u20$core..ops..drop..Drop$GT$4drop17h577ef7952f46237cE, .Lfunc_end69-_ZN77_$LT$alloc..raw_vec..RawVec$LT$T$C$A$GT$$u20$as$u20$core..ops..drop..Drop$GT$4drop17h577ef7952f46237cE
	.cfi_endproc

	.section	".text._ZN78_$LT$std..io..error..repr_bitpacked..Repr$u20$as$u20$core..ops..drop..Drop$GT$4drop17h981ddab7657238f1E","ax",@progbits
	.p2align	4, 0x90
	.type	_ZN78_$LT$std..io..error..repr_bitpacked..Repr$u20$as$u20$core..ops..drop..Drop$GT$4drop17h981ddab7657238f1E,@function
_ZN78_$LT$std..io..error..repr_bitpacked..Repr$u20$as$u20$core..ops..drop..Drop$GT$4drop17h981ddab7657238f1E:
	.cfi_startproc
	subq	$24, %rsp
	.cfi_def_cfa_offset 32
	movq	(%rdi), %rsi
	leaq	8(%rsp), %rdi
	callq	_ZN3std2io5error14repr_bitpacked11decode_repr17h6e7a15337a8027bfE
	leaq	8(%rsp), %rdi
	callq	_ZN4core3ptr101drop_in_place$LT$std..io..error..ErrorData$LT$alloc..boxed..Box$LT$std..io..error..Custom$GT$$GT$$GT$17heb2f6d840d259c1dE
	addq	$24, %rsp
	.cfi_def_cfa_offset 8
	retq
.Lfunc_end70:
	.size	_ZN78_$LT$std..io..error..repr_bitpacked..Repr$u20$as$u20$core..ops..drop..Drop$GT$4drop17h981ddab7657238f1E, .Lfunc_end70-_ZN78_$LT$std..io..error..repr_bitpacked..Repr$u20$as$u20$core..ops..drop..Drop$GT$4drop17h981ddab7657238f1E
	.cfi_endproc

	.section	".text._ZN78_$LT$std..io..error..repr_bitpacked..Repr$u20$as$u20$core..ops..drop..Drop$GT$4drop28_$u7b$$u7b$closure$u7d$$u7d$17h748b02a7de8bbcb2E","ax",@progbits
	.p2align	4, 0x90
	.type	_ZN78_$LT$std..io..error..repr_bitpacked..Repr$u20$as$u20$core..ops..drop..Drop$GT$4drop28_$u7b$$u7b$closure$u7d$$u7d$17h748b02a7de8bbcb2E,@function
_ZN78_$LT$std..io..error..repr_bitpacked..Repr$u20$as$u20$core..ops..drop..Drop$GT$4drop28_$u7b$$u7b$closure$u7d$$u7d$17h748b02a7de8bbcb2E:
	.cfi_startproc
	subq	$40, %rsp
	.cfi_def_cfa_offset 48
	movq	%rdi, 8(%rsp)
	movq	8(%rsp), %rdi
	callq	_ZN4core3ptr8non_null16NonNull$LT$T$GT$13new_unchecked18precondition_check17h439675fa9bf80c86E
	movq	8(%rsp), %rax
	movq	%rax, 32(%rsp)
	movq	32(%rsp), %rax
	movq	%rax, 24(%rsp)
	movq	24(%rsp), %rax
	movq	%rax, 16(%rsp)
	movq	16(%rsp), %rax
	addq	$40, %rsp
	.cfi_def_cfa_offset 8
	retq
.Lfunc_end71:
	.size	_ZN78_$LT$std..io..error..repr_bitpacked..Repr$u20$as$u20$core..ops..drop..Drop$GT$4drop28_$u7b$$u7b$closure$u7d$$u7d$17h748b02a7de8bbcb2E, .Lfunc_end71-_ZN78_$LT$std..io..error..repr_bitpacked..Repr$u20$as$u20$core..ops..drop..Drop$GT$4drop28_$u7b$$u7b$closure$u7d$$u7d$17h748b02a7de8bbcb2E
	.cfi_endproc

	.section	".text._ZN81_$LT$core..str..iter..Chars$u20$as$u20$core..iter..traits..iterator..Iterator$GT$4next17h5420730f00746bd3E","ax",@progbits
	.p2align	4, 0x90
	.type	_ZN81_$LT$core..str..iter..Chars$u20$as$u20$core..iter..traits..iterator..Iterator$GT$4next17h5420730f00746bd3E,@function
_ZN81_$LT$core..str..iter..Chars$u20$as$u20$core..iter..traits..iterator..Iterator$GT$4next17h5420730f00746bd3E:
	.cfi_startproc
	subq	$24, %rsp
	.cfi_def_cfa_offset 32
	callq	_ZN4core3str11validations15next_code_point17hcc226ce6caa4a1f2E
	movl	%eax, 16(%rsp)
	movl	%edx, 20(%rsp)
	movl	16(%rsp), %eax
	cmpq	$0, %rax
	jne	.LBB72_2
	movl	$1114112, 12(%rsp)
	jmp	.LBB72_3
.LBB72_2:
	movl	20(%rsp), %eax
	movl	%eax, 8(%rsp)
	jmp	.LBB72_4
.LBB72_3:
	movl	12(%rsp), %eax
	addq	$24, %rsp
	.cfi_def_cfa_offset 8
	retq
.LBB72_4:
	.cfi_def_cfa_offset 32
	movl	8(%rsp), %edi
	callq	_ZN4core4char7convert18from_u32_unchecked18precondition_check17h6c2bd674175859daE
	movl	8(%rsp), %eax
	movl	%eax, 12(%rsp)
	jmp	.LBB72_3
.Lfunc_end72:
	.size	_ZN81_$LT$core..str..iter..Chars$u20$as$u20$core..iter..traits..iterator..Iterator$GT$4next17h5420730f00746bd3E, .Lfunc_end72-_ZN81_$LT$core..str..iter..Chars$u20$as$u20$core..iter..traits..iterator..Iterator$GT$4next17h5420730f00746bd3E
	.cfi_endproc

	.section	".text._ZN87_$LT$core..str..iter..CharIndices$u20$as$u20$core..iter..traits..iterator..Iterator$GT$4next17hfe6fbfa9d3ee4e73E","ax",@progbits
	.p2align	4, 0x90
	.type	_ZN87_$LT$core..str..iter..CharIndices$u20$as$u20$core..iter..traits..iterator..Iterator$GT$4next17hfe6fbfa9d3ee4e73E,@function
_ZN87_$LT$core..str..iter..CharIndices$u20$as$u20$core..iter..traits..iterator..Iterator$GT$4next17hfe6fbfa9d3ee4e73E:
	.cfi_startproc
	subq	$72, %rsp
	.cfi_def_cfa_offset 80
	movq	%rdi, %rax
	movq	%rax, 16(%rsp)
	movq	8(%rax), %rdi
	movq	(%rax), %rsi
	callq	_ZN4core3ptr9const_ptr33_$LT$impl$u20$$BP$const$u20$T$GT$7sub_ptr17h41eddbdd08bba3bcE
	movq	16(%rsp), %rdi
	movq	%rax, 24(%rsp)
	callq	_ZN81_$LT$core..str..iter..Chars$u20$as$u20$core..iter..traits..iterator..Iterator$GT$4next17h5420730f00746bd3E
	movl	%eax, 52(%rsp)
	movl	$1, %eax
	xorl	%ecx, %ecx
	cmpl	$1114112, 52(%rsp)
	cmoveq	%rcx, %rax
	cmpq	$0, %rax
	jne	.LBB73_2
	movq	.L__unnamed_1(%rip), %rcx
	movl	.L__unnamed_1+8(%rip), %eax
	movq	%rcx, 32(%rsp)
	movl	%eax, 40(%rsp)
	jmp	.LBB73_3
.LBB73_2:
	movq	16(%rsp), %rax
	movl	52(%rsp), %ecx
	movl	%ecx, 12(%rsp)
	movq	16(%rax), %rcx
	movq	%rcx, (%rsp)
	movq	8(%rax), %rdi
	movq	(%rax), %rsi
	callq	_ZN4core3ptr9const_ptr33_$LT$impl$u20$$BP$const$u20$T$GT$7sub_ptr17h41eddbdd08bba3bcE
	movq	24(%rsp), %rsi
	movq	16(%rsp), %rdx
	movq	(%rsp), %rcx
	movq	%rax, %rdi
	movl	12(%rsp), %eax
	subq	%rdi, %rsi
	addq	16(%rdx), %rsi
	movq	%rsi, 16(%rdx)
	movq	%rcx, 56(%rsp)
	movl	%eax, 64(%rsp)
	movq	56(%rsp), %rcx
	movl	64(%rsp), %eax
	movq	%rcx, 32(%rsp)
	movl	%eax, 40(%rsp)
.LBB73_3:
	movq	32(%rsp), %rax
	movl	40(%rsp), %edx
	addq	$72, %rsp
	.cfi_def_cfa_offset 8
	retq
.Lfunc_end73:
	.size	_ZN87_$LT$core..str..iter..CharIndices$u20$as$u20$core..iter..traits..iterator..Iterator$GT$4next17hfe6fbfa9d3ee4e73E, .Lfunc_end73-_ZN87_$LT$core..str..iter..CharIndices$u20$as$u20$core..iter..traits..iterator..Iterator$GT$4next17hfe6fbfa9d3ee4e73E
	.cfi_endproc

	.section	".text._ZN89_$LT$core..ops..range..Range$LT$T$GT$$u20$as$u20$core..iter..range..RangeIteratorImpl$GT$14spec_next_back17he40313e91cc1205aE","ax",@progbits
	.p2align	4, 0x90
	.type	_ZN89_$LT$core..ops..range..Range$LT$T$GT$$u20$as$u20$core..iter..range..RangeIteratorImpl$GT$14spec_next_back17he40313e91cc1205aE,@function
_ZN89_$LT$core..ops..range..Range$LT$T$GT$$u20$as$u20$core..iter..range..RangeIteratorImpl$GT$14spec_next_back17he40313e91cc1205aE:
	.cfi_startproc
	subq	$24, %rsp
	.cfi_def_cfa_offset 32
	movq	%rdi, (%rsp)
	movq	(%rdi), %rax
	cmpq	8(%rdi), %rax
	jb	.LBB74_2
	movq	$0, 8(%rsp)
	jmp	.LBB74_3
.LBB74_2:
	movq	(%rsp), %rax
	movq	8(%rax), %rdi
	movl	$1, %esi
	callq	_ZN49_$LT$usize$u20$as$u20$core..iter..range..Step$GT$18backward_unchecked17h6d0ac0f805b42757E
	movq	%rax, %rcx
	movq	(%rsp), %rax
	movq	%rcx, 8(%rax)
	movq	8(%rax), %rax
	movq	%rax, 16(%rsp)
	movq	$1, 8(%rsp)
.LBB74_3:
	movq	8(%rsp), %rax
	movq	16(%rsp), %rdx
	addq	$24, %rsp
	.cfi_def_cfa_offset 8
	retq
.Lfunc_end74:
	.size	_ZN89_$LT$core..ops..range..Range$LT$T$GT$$u20$as$u20$core..iter..range..RangeIteratorImpl$GT$14spec_next_back17he40313e91cc1205aE, .Lfunc_end74-_ZN89_$LT$core..ops..range..Range$LT$T$GT$$u20$as$u20$core..iter..range..RangeIteratorImpl$GT$14spec_next_back17he40313e91cc1205aE
	.cfi_endproc

	.section	".text._ZN89_$LT$core..ops..range..Range$LT$T$GT$$u20$as$u20$core..iter..range..RangeIteratorImpl$GT$9spec_next17h3eee2bdc87fbfd97E","ax",@progbits
	.p2align	4, 0x90
	.type	_ZN89_$LT$core..ops..range..Range$LT$T$GT$$u20$as$u20$core..iter..range..RangeIteratorImpl$GT$9spec_next17h3eee2bdc87fbfd97E,@function
_ZN89_$LT$core..ops..range..Range$LT$T$GT$$u20$as$u20$core..iter..range..RangeIteratorImpl$GT$9spec_next17h3eee2bdc87fbfd97E:
	.cfi_startproc
	subq	$40, %rsp
	.cfi_def_cfa_offset 48
	movq	%rdi, 16(%rsp)
	movq	(%rdi), %rax
	cmpq	8(%rdi), %rax
	jb	.LBB75_2
	movq	$0, 24(%rsp)
	jmp	.LBB75_3
.LBB75_2:
	movq	16(%rsp), %rax
	movq	(%rax), %rdi
	movq	%rdi, 8(%rsp)
	movl	$1, %esi
	callq	_ZN49_$LT$usize$u20$as$u20$core..iter..range..Step$GT$17forward_unchecked17h0905d2922015fbc1E
	movq	16(%rsp), %rcx
	movq	%rax, %rdx
	movq	8(%rsp), %rax
	movq	%rdx, (%rcx)
	movq	%rax, 32(%rsp)
	movq	$1, 24(%rsp)
.LBB75_3:
	movq	24(%rsp), %rax
	movq	32(%rsp), %rdx
	addq	$40, %rsp
	.cfi_def_cfa_offset 8
	retq
.Lfunc_end75:
	.size	_ZN89_$LT$core..ops..range..Range$LT$T$GT$$u20$as$u20$core..iter..range..RangeIteratorImpl$GT$9spec_next17h3eee2bdc87fbfd97E, .Lfunc_end75-_ZN89_$LT$core..ops..range..Range$LT$T$GT$$u20$as$u20$core..iter..range..RangeIteratorImpl$GT$9spec_next17h3eee2bdc87fbfd97E
	.cfi_endproc

	.section	".text._ZN89_$LT$core..ops..range..Range$LT$T$GT$$u20$as$u20$core..iter..range..RangeIteratorImpl$GT$9spec_next17h90ca90c8d33d4377E","ax",@progbits
	.p2align	4, 0x90
	.type	_ZN89_$LT$core..ops..range..Range$LT$T$GT$$u20$as$u20$core..iter..range..RangeIteratorImpl$GT$9spec_next17h90ca90c8d33d4377E,@function
_ZN89_$LT$core..ops..range..Range$LT$T$GT$$u20$as$u20$core..iter..range..RangeIteratorImpl$GT$9spec_next17h90ca90c8d33d4377E:
	.cfi_startproc
	subq	$40, %rsp
	.cfi_def_cfa_offset 48
	movq	%rdi, 16(%rsp)
	movq	(%rdi), %rax
	cmpq	8(%rdi), %rax
	jl	.LBB76_2
	movq	$0, 24(%rsp)
	jmp	.LBB76_3
.LBB76_2:
	movq	16(%rsp), %rax
	movq	(%rax), %rdi
	movq	%rdi, 8(%rsp)
	movl	$1, %esi
	callq	_ZN49_$LT$isize$u20$as$u20$core..iter..range..Step$GT$17forward_unchecked17h0626855b604c49d2E
	movq	16(%rsp), %rcx
	movq	%rax, %rdx
	movq	8(%rsp), %rax
	movq	%rdx, (%rcx)
	movq	%rax, 32(%rsp)
	movq	$1, 24(%rsp)
.LBB76_3:
	movq	24(%rsp), %rax
	movq	32(%rsp), %rdx
	addq	$40, %rsp
	.cfi_def_cfa_offset 8
	retq
.Lfunc_end76:
	.size	_ZN89_$LT$core..ops..range..Range$LT$T$GT$$u20$as$u20$core..iter..range..RangeIteratorImpl$GT$9spec_next17h90ca90c8d33d4377E, .Lfunc_end76-_ZN89_$LT$core..ops..range..Range$LT$T$GT$$u20$as$u20$core..iter..range..RangeIteratorImpl$GT$9spec_next17h90ca90c8d33d4377E
	.cfi_endproc

	.section	".text._ZN91_$LT$core..slice..iter..Iter$LT$T$GT$$u20$as$u20$core..iter..traits..iterator..Iterator$GT$4next17h79f751ab3323a663E","ax",@progbits
	.p2align	4, 0x90
	.type	_ZN91_$LT$core..slice..iter..Iter$LT$T$GT$$u20$as$u20$core..iter..traits..iterator..Iterator$GT$4next17h79f751ab3323a663E,@function
_ZN91_$LT$core..slice..iter..Iter$LT$T$GT$$u20$as$u20$core..iter..traits..iterator..Iterator$GT$4next17h79f751ab3323a663E:
	.cfi_startproc
	movq	%rdi, -48(%rsp)
	movq	-48(%rsp), %rax
	movq	8(%rax), %rcx
	movq	%rcx, -24(%rsp)
	movq	(%rax), %rax
	cmpq	-24(%rsp), %rax
	sete	%al
	andb	$1, %al
	movb	%al, -25(%rsp)
	testb	$1, -25(%rsp)
	jne	.LBB77_4
	movq	-48(%rsp), %rax
	movq	(%rax), %rax
	movq	%rax, -16(%rsp)
	jmp	.LBB77_5
.LBB77_4:
	movq	$0, -40(%rsp)
	jmp	.LBB77_7
.LBB77_5:
	movq	-48(%rsp), %rax
	movq	(%rax), %rcx
	addq	$1, %rcx
	movq	%rcx, -8(%rsp)
	movq	-8(%rsp), %rcx
	movq	%rcx, (%rax)
	movq	-16(%rsp), %rax
	movq	%rax, -40(%rsp)
.LBB77_7:
	movq	-40(%rsp), %rax
	retq
.Lfunc_end77:
	.size	_ZN91_$LT$core..slice..iter..Iter$LT$T$GT$$u20$as$u20$core..iter..traits..iterator..Iterator$GT$4next17h79f751ab3323a663E, .Lfunc_end77-_ZN91_$LT$core..slice..iter..Iter$LT$T$GT$$u20$as$u20$core..iter..traits..iterator..Iterator$GT$4next17h79f751ab3323a663E
	.cfi_endproc

	.section	".text._ZN91_$LT$core..slice..iter..Iter$LT$T$GT$$u20$as$u20$core..iter..traits..iterator..Iterator$GT$4next17h8be353dd35e58801E","ax",@progbits
	.p2align	4, 0x90
	.type	_ZN91_$LT$core..slice..iter..Iter$LT$T$GT$$u20$as$u20$core..iter..traits..iterator..Iterator$GT$4next17h8be353dd35e58801E,@function
_ZN91_$LT$core..slice..iter..Iter$LT$T$GT$$u20$as$u20$core..iter..traits..iterator..Iterator$GT$4next17h8be353dd35e58801E:
	.cfi_startproc
	movq	%rdi, -48(%rsp)
	movq	-48(%rsp), %rax
	movq	8(%rax), %rcx
	movq	%rcx, -24(%rsp)
	movq	(%rax), %rax
	cmpq	-24(%rsp), %rax
	sete	%al
	andb	$1, %al
	movb	%al, -25(%rsp)
	testb	$1, -25(%rsp)
	jne	.LBB78_4
	movq	-48(%rsp), %rax
	movq	(%rax), %rax
	movq	%rax, -16(%rsp)
	jmp	.LBB78_5
.LBB78_4:
	movq	$0, -40(%rsp)
	jmp	.LBB78_7
.LBB78_5:
	movq	-48(%rsp), %rax
	movq	(%rax), %rcx
	addq	$4, %rcx
	movq	%rcx, -8(%rsp)
	movq	-8(%rsp), %rcx
	movq	%rcx, (%rax)
	movq	-16(%rsp), %rax
	movq	%rax, -40(%rsp)
.LBB78_7:
	movq	-40(%rsp), %rax
	retq
.Lfunc_end78:
	.size	_ZN91_$LT$core..slice..iter..Iter$LT$T$GT$$u20$as$u20$core..iter..traits..iterator..Iterator$GT$4next17h8be353dd35e58801E, .Lfunc_end78-_ZN91_$LT$core..slice..iter..Iter$LT$T$GT$$u20$as$u20$core..iter..traits..iterator..Iterator$GT$4next17h8be353dd35e58801E
	.cfi_endproc

	.section	".text._ZN91_$LT$core..slice..iter..Iter$LT$T$GT$$u20$as$u20$core..iter..traits..iterator..Iterator$GT$4next17he61c4b3d4000328dE","ax",@progbits
	.p2align	4, 0x90
	.type	_ZN91_$LT$core..slice..iter..Iter$LT$T$GT$$u20$as$u20$core..iter..traits..iterator..Iterator$GT$4next17he61c4b3d4000328dE,@function
_ZN91_$LT$core..slice..iter..Iter$LT$T$GT$$u20$as$u20$core..iter..traits..iterator..Iterator$GT$4next17he61c4b3d4000328dE:
	.cfi_startproc
	movq	%rdi, -48(%rsp)
	movq	-48(%rsp), %rax
	movq	8(%rax), %rcx
	movq	%rcx, -24(%rsp)
	movq	(%rax), %rax
	cmpq	-24(%rsp), %rax
	sete	%al
	andb	$1, %al
	movb	%al, -25(%rsp)
	testb	$1, -25(%rsp)
	jne	.LBB79_4
	movq	-48(%rsp), %rax
	movq	(%rax), %rax
	movq	%rax, -16(%rsp)
	jmp	.LBB79_5
.LBB79_4:
	movq	$0, -40(%rsp)
	jmp	.LBB79_7
.LBB79_5:
	movq	-48(%rsp), %rax
	movq	(%rax), %rcx
	addq	$28, %rcx
	movq	%rcx, -8(%rsp)
	movq	-8(%rsp), %rcx
	movq	%rcx, (%rax)
	movq	-16(%rsp), %rax
	movq	%rax, -40(%rsp)
.LBB79_7:
	movq	-40(%rsp), %rax
	retq
.Lfunc_end79:
	.size	_ZN91_$LT$core..slice..iter..Iter$LT$T$GT$$u20$as$u20$core..iter..traits..iterator..Iterator$GT$4next17he61c4b3d4000328dE, .Lfunc_end79-_ZN91_$LT$core..slice..iter..Iter$LT$T$GT$$u20$as$u20$core..iter..traits..iterator..Iterator$GT$4next17he61c4b3d4000328dE
	.cfi_endproc

	.section	".text._ZN96_$LT$core..str..iter..Chars$u20$as$u20$core..iter..traits..double_ended..DoubleEndedIterator$GT$9next_back17h1331118b863f63d4E","ax",@progbits
	.p2align	4, 0x90
	.type	_ZN96_$LT$core..str..iter..Chars$u20$as$u20$core..iter..traits..double_ended..DoubleEndedIterator$GT$9next_back17h1331118b863f63d4E,@function
_ZN96_$LT$core..str..iter..Chars$u20$as$u20$core..iter..traits..double_ended..DoubleEndedIterator$GT$9next_back17h1331118b863f63d4E:
	.cfi_startproc
	subq	$24, %rsp
	.cfi_def_cfa_offset 32
	callq	_ZN4core3str11validations23next_code_point_reverse17h814a8b460b4f56cdE
	movl	%eax, 16(%rsp)
	movl	%edx, 20(%rsp)
	movl	16(%rsp), %eax
	cmpq	$0, %rax
	jne	.LBB80_2
	movl	$1114112, 12(%rsp)
	jmp	.LBB80_3
.LBB80_2:
	movl	20(%rsp), %eax
	movl	%eax, 8(%rsp)
	jmp	.LBB80_4
.LBB80_3:
	movl	12(%rsp), %eax
	addq	$24, %rsp
	.cfi_def_cfa_offset 8
	retq
.LBB80_4:
	.cfi_def_cfa_offset 32
	movl	8(%rsp), %edi
	callq	_ZN4core4char7convert18from_u32_unchecked18precondition_check17h6c2bd674175859daE
	movl	8(%rsp), %eax
	movl	%eax, 12(%rsp)
	jmp	.LBB80_3
.Lfunc_end80:
	.size	_ZN96_$LT$core..str..iter..Chars$u20$as$u20$core..iter..traits..double_ended..DoubleEndedIterator$GT$9next_back17h1331118b863f63d4E, .Lfunc_end80-_ZN96_$LT$core..str..iter..Chars$u20$as$u20$core..iter..traits..double_ended..DoubleEndedIterator$GT$9next_back17h1331118b863f63d4E
	.cfi_endproc

	.section	".text._ZN97_$LT$core..str..pattern..MultiCharEqSearcher$LT$C$GT$$u20$as$u20$core..str..pattern..Searcher$GT$4next17hd64ca54c2bd221c4E","ax",@progbits
	.p2align	4, 0x90
	.type	_ZN97_$LT$core..str..pattern..MultiCharEqSearcher$LT$C$GT$$u20$as$u20$core..str..pattern..Searcher$GT$4next17hd64ca54c2bd221c4E,@function
_ZN97_$LT$core..str..pattern..MultiCharEqSearcher$LT$C$GT$$u20$as$u20$core..str..pattern..Searcher$GT$4next17hd64ca54c2bd221c4E:
	.cfi_startproc
	subq	$72, %rsp
	.cfi_def_cfa_offset 80
	movq	%rsi, 40(%rsp)
	movq	%rdi, 24(%rsp)
	movq	%rdi, 32(%rsp)
	movq	24(%rsi), %rdi
	movq	16(%rsi), %rsi
	callq	_ZN4core3ptr9const_ptr33_$LT$impl$u20$$BP$const$u20$T$GT$7sub_ptr17h41eddbdd08bba3bcE
	movq	40(%rsp), %rdi
	movq	%rax, 48(%rsp)
	addq	$16, %rdi
	callq	_ZN87_$LT$core..str..iter..CharIndices$u20$as$u20$core..iter..traits..iterator..Iterator$GT$4next17hfe6fbfa9d3ee4e73E
	movq	%rax, 56(%rsp)
	movl	%edx, 64(%rsp)
	movl	$1, %eax
	xorl	%ecx, %ecx
	cmpl	$1114112, 64(%rsp)
	cmoveq	%rcx, %rax
	cmpq	$1, %rax
	jne	.LBB81_2
	movq	40(%rsp), %rax
	movq	56(%rsp), %rcx
	movq	%rcx, (%rsp)
	movl	64(%rsp), %ecx
	movl	%ecx, 12(%rsp)
	movq	24(%rax), %rdi
	movq	16(%rax), %rsi
	callq	_ZN4core3ptr9const_ptr33_$LT$impl$u20$$BP$const$u20$T$GT$7sub_ptr17h41eddbdd08bba3bcE
	movq	40(%rsp), %rdi
	movl	12(%rsp), %esi
	movq	%rax, %rcx
	movq	48(%rsp), %rax
	subq	%rcx, %rax
	movq	%rax, 16(%rsp)
	addq	$40, %rdi
	callq	_ZN53_$LT$F$u20$as$u20$core..str..pattern..MultiCharEq$GT$7matches17haab52f5d3238ee4aE
	testb	$1, %al
	jne	.LBB81_4
	jmp	.LBB81_3
.LBB81_2:
	movq	24(%rsp), %rax
	movq	$2, (%rax)
	jmp	.LBB81_6
.LBB81_3:
	movq	24(%rsp), %rax
	movq	(%rsp), %rdx
	movq	16(%rsp), %rsi
	movq	%rdx, %rcx
	addq	%rsi, %rcx
	movq	%rdx, 8(%rax)
	movq	%rcx, 16(%rax)
	movq	$1, (%rax)
	jmp	.LBB81_5
.LBB81_4:
	movq	24(%rsp), %rax
	movq	(%rsp), %rdx
	movq	16(%rsp), %rsi
	movq	%rdx, %rcx
	addq	%rsi, %rcx
	movq	%rdx, 8(%rax)
	movq	%rcx, 16(%rax)
	movq	$0, (%rax)
.LBB81_5:
	jmp	.LBB81_6
.LBB81_6:
	movq	32(%rsp), %rax
	addq	$72, %rsp
	.cfi_def_cfa_offset 8
	retq
.Lfunc_end81:
	.size	_ZN97_$LT$core..str..pattern..MultiCharEqSearcher$LT$C$GT$$u20$as$u20$core..str..pattern..Searcher$GT$4next17hd64ca54c2bd221c4E, .Lfunc_end81-_ZN97_$LT$core..str..pattern..MultiCharEqSearcher$LT$C$GT$$u20$as$u20$core..str..pattern..Searcher$GT$4next17hd64ca54c2bd221c4E
	.cfi_endproc

	.section	".text._ZN98_$LT$core..iter..adapters..rev..Rev$LT$I$GT$$u20$as$u20$core..iter..traits..iterator..Iterator$GT$4next17h2330df0c89a6d86aE","ax",@progbits
	.p2align	4, 0x90
	.type	_ZN98_$LT$core..iter..adapters..rev..Rev$LT$I$GT$$u20$as$u20$core..iter..traits..iterator..Iterator$GT$4next17h2330df0c89a6d86aE,@function
_ZN98_$LT$core..iter..adapters..rev..Rev$LT$I$GT$$u20$as$u20$core..iter..traits..iterator..Iterator$GT$4next17h2330df0c89a6d86aE:
	.cfi_startproc
	pushq	%rax
	.cfi_def_cfa_offset 16
	callq	_ZN4core4iter5range116_$LT$impl$u20$core..iter..traits..double_ended..DoubleEndedIterator$u20$for$u20$core..ops..range..Range$LT$A$GT$$GT$9next_back17h718982dc5e0f49ccE
	popq	%rcx
	.cfi_def_cfa_offset 8
	retq
.Lfunc_end82:
	.size	_ZN98_$LT$core..iter..adapters..rev..Rev$LT$I$GT$$u20$as$u20$core..iter..traits..iterator..Iterator$GT$4next17h2330df0c89a6d86aE, .Lfunc_end82-_ZN98_$LT$core..iter..adapters..rev..Rev$LT$I$GT$$u20$as$u20$core..iter..traits..iterator..Iterator$GT$4next17h2330df0c89a6d86aE
	.cfi_endproc

	.section	".text._ZN99_$LT$core..str..pattern..CharPredicateSearcher$LT$F$GT$$u20$as$u20$core..str..pattern..Searcher$GT$11next_reject17h91c119a4e79062aeE","ax",@progbits
	.p2align	4, 0x90
	.type	_ZN99_$LT$core..str..pattern..CharPredicateSearcher$LT$F$GT$$u20$as$u20$core..str..pattern..Searcher$GT$11next_reject17h91c119a4e79062aeE,@function
_ZN99_$LT$core..str..pattern..CharPredicateSearcher$LT$F$GT$$u20$as$u20$core..str..pattern..Searcher$GT$11next_reject17h91c119a4e79062aeE:
	.cfi_startproc
	subq	$72, %rsp
	.cfi_def_cfa_offset 80
	movq	%rsi, 8(%rsp)
	movq	%rdi, 16(%rsp)
	movq	%rdi, 24(%rsp)
.LBB83_1:
	movq	8(%rsp), %rsi
	leaq	32(%rsp), %rdi
	callq	_ZN97_$LT$core..str..pattern..MultiCharEqSearcher$LT$C$GT$$u20$as$u20$core..str..pattern..Searcher$GT$4next17hd64ca54c2bd221c4E
	movq	32(%rsp), %rax
	movq	%rax, (%rsp)
	testq	%rax, %rax
	je	.LBB83_5
	jmp	.LBB83_7
.LBB83_7:
	movq	(%rsp), %rax
	subq	$1, %rax
	je	.LBB83_3
	jmp	.LBB83_8
.LBB83_8:
	jmp	.LBB83_4
	.cfi_def_cfa_offset 8
	ud2
.LBB83_3:
	.cfi_def_cfa_offset 80
	movq	16(%rsp), %rax
	movq	40(%rsp), %rdx
	movq	48(%rsp), %rcx
	movq	%rdx, 56(%rsp)
	movq	%rcx, 64(%rsp)
	movq	56(%rsp), %rdx
	movq	64(%rsp), %rcx
	movq	%rdx, 8(%rax)
	movq	%rcx, 16(%rax)
	movq	$1, (%rax)
	jmp	.LBB83_6
.LBB83_4:
	movq	16(%rsp), %rax
	movq	$0, (%rax)
	jmp	.LBB83_6
.LBB83_5:
	jmp	.LBB83_1
.LBB83_6:
	movq	24(%rsp), %rax
	addq	$72, %rsp
	.cfi_def_cfa_offset 8
	retq
.Lfunc_end83:
	.size	_ZN99_$LT$core..str..pattern..CharPredicateSearcher$LT$F$GT$$u20$as$u20$core..str..pattern..Searcher$GT$11next_reject17h91c119a4e79062aeE, .Lfunc_end83-_ZN99_$LT$core..str..pattern..CharPredicateSearcher$LT$F$GT$$u20$as$u20$core..str..pattern..Searcher$GT$11next_reject17h91c119a4e79062aeE
	.cfi_endproc

	.section	.text._ZN4main16initialize_board17h94e2f4cd32497805E,"ax",@progbits
	.p2align	4, 0x90
	.type	_ZN4main16initialize_board17h94e2f4cd32497805E,@function
_ZN4main16initialize_board17h94e2f4cd32497805E:
	.cfi_startproc
	movq	%rdi, -56(%rsp)
	movq	%rdi, -48(%rsp)
	xorl	%eax, %eax
	movq	%rax, -40(%rsp)
.LBB84_1:
	movq	-40(%rsp), %rax
	movq	%rax, -64(%rsp)
	cmpq	$7, %rax
	jae	.LBB84_3
	movq	-64(%rsp), %rax
	movl	$32, -28(%rsp,%rax,4)
	addq	$1, %rax
	movq	%rax, -40(%rsp)
	jmp	.LBB84_1
.LBB84_3:
	xorl	%eax, %eax
	movq	%rax, -72(%rsp)
	jmp	.LBB84_4
.LBB84_4:
	movq	-72(%rsp), %rax
	movq	%rax, -80(%rsp)
	cmpq	$6, %rax
	jae	.LBB84_6
	movq	-80(%rsp), %rax
	movq	-56(%rsp), %rcx
	imulq	$28, %rax, %rdx
	addq	%rdx, %rcx
	movq	-28(%rsp), %rdx
	movq	%rdx, (%rcx)
	movq	-20(%rsp), %rdx
	movq	%rdx, 8(%rcx)
	movq	-12(%rsp), %rdx
	movq	%rdx, 16(%rcx)
	movl	-4(%rsp), %edx
	movl	%edx, 24(%rcx)
	addq	$1, %rax
	movq	%rax, -72(%rsp)
	jmp	.LBB84_4
.LBB84_6:
	movq	-48(%rsp), %rax
	retq
.Lfunc_end84:
	.size	_ZN4main16initialize_board17h94e2f4cd32497805E, .Lfunc_end84-_ZN4main16initialize_board17h94e2f4cd32497805E
	.cfi_endproc

	.section	.text._ZN4main11print_board17hbea090fa88cfd3c6E,"ax",@progbits
	.p2align	4, 0x90
	.type	_ZN4main11print_board17hbea090fa88cfd3c6E,@function
_ZN4main11print_board17hbea090fa88cfd3c6E:
	.cfi_startproc
	subq	$520, %rsp
	.cfi_def_cfa_offset 528
	movl	$6, %esi
	callq	_ZN4core5slice29_$LT$impl$u20$$u5b$T$u5d$$GT$4iter17hb5adb4d3b39a9c5cE
	movq	%rax, %rdi
	movq	%rdx, %rsi
	callq	_ZN63_$LT$I$u20$as$u20$core..iter..traits..collect..IntoIterator$GT$9into_iter17ha648347c0a222f0dE
	movq	%rax, 8(%rsp)
	movq	%rdx, 16(%rsp)
.LBB85_1:
	leaq	8(%rsp), %rdi
	callq	_ZN91_$LT$core..slice..iter..Iter$LT$T$GT$$u20$as$u20$core..iter..traits..iterator..Iterator$GT$4next17he61c4b3d4000328dE
	movq	%rax, 24(%rsp)
	movq	24(%rsp), %rdx
	movl	$1, %eax
	xorl	%ecx, %ecx
	cmpq	$0, %rdx
	cmoveq	%rcx, %rax
	cmpq	$0, %rax
	jne	.LBB85_3
	movq	$0, 176(%rsp)
	movq	$7, 184(%rsp)
	movq	176(%rsp), %rdi
	movq	184(%rsp), %rsi
	callq	_ZN63_$LT$I$u20$as$u20$core..iter..traits..collect..IntoIterator$GT$9into_iter17heb4eadcc8c7e38f4E
	movq	%rax, 192(%rsp)
	movq	%rdx, 200(%rsp)
	jmp	.LBB85_4
.LBB85_3:
	movq	24(%rsp), %rdi
	movl	$7, %esi
	callq	_ZN4core5slice29_$LT$impl$u20$$u5b$T$u5d$$GT$4iter17h900f1bdef003a732E
	movq	%rax, %rdi
	movq	%rdx, %rsi
	callq	_ZN63_$LT$I$u20$as$u20$core..iter..traits..collect..IntoIterator$GT$9into_iter17h40b636460a34d9c3E
	movq	%rax, 32(%rsp)
	movq	%rdx, 40(%rsp)
	jmp	.LBB85_10
.LBB85_4:
	leaq	192(%rsp), %rdi
	callq	_ZN4core4iter5range101_$LT$impl$u20$core..iter..traits..iterator..Iterator$u20$for$u20$core..ops..range..Range$LT$A$GT$$GT$4next17hd453836dc16735a2E
	movq	%rax, 208(%rsp)
	movq	%rdx, 216(%rsp)
	cmpq	$0, 208(%rsp)
	jne	.LBB85_6
	leaq	272(%rsp), %rdi
	leaq	.L__unnamed_23(%rip), %rsi
	movl	$1, %edx
	callq	_ZN4core3fmt9Arguments9new_const17h44bc4ea26c6dca12E
	leaq	272(%rsp), %rdi
	callq	*_ZN3std2io5stdio6_print17h5c2f653c9c3347e5E@GOTPCREL(%rip)
	movq	$0, 320(%rsp)
	movq	$7, 328(%rsp)
	movq	320(%rsp), %rdi
	movq	328(%rsp), %rsi
	callq	_ZN63_$LT$I$u20$as$u20$core..iter..traits..collect..IntoIterator$GT$9into_iter17heb4eadcc8c7e38f4E
	movq	%rax, 336(%rsp)
	movq	%rdx, 344(%rsp)
	jmp	.LBB85_7
.LBB85_6:
	leaq	224(%rsp), %rdi
	leaq	.L__unnamed_24(%rip), %rsi
	movl	$1, %edx
	callq	_ZN4core3fmt9Arguments9new_const17h44bc4ea26c6dca12E
	leaq	224(%rsp), %rdi
	callq	*_ZN3std2io5stdio6_print17h5c2f653c9c3347e5E@GOTPCREL(%rip)
	jmp	.LBB85_4
.LBB85_7:
	leaq	336(%rsp), %rdi
	callq	_ZN4core4iter5range101_$LT$impl$u20$core..iter..traits..iterator..Iterator$u20$for$u20$core..ops..range..Range$LT$A$GT$$GT$4next17hd453836dc16735a2E
	movq	%rax, 352(%rsp)
	movq	%rdx, 360(%rsp)
	cmpq	$0, 352(%rsp)
	jne	.LBB85_9
	leaq	440(%rsp), %rdi
	leaq	.L__unnamed_23(%rip), %rsi
	movl	$1, %edx
	callq	_ZN4core3fmt9Arguments9new_const17h44bc4ea26c6dca12E
	leaq	440(%rsp), %rdi
	callq	*_ZN3std2io5stdio6_print17h5c2f653c9c3347e5E@GOTPCREL(%rip)
	addq	$520, %rsp
	.cfi_def_cfa_offset 8
	retq
.LBB85_9:
	.cfi_def_cfa_offset 528
	movq	360(%rsp), %rax
	movq	%rax, 368(%rsp)
	leaq	368(%rsp), %rax
	movq	%rax, 504(%rsp)
	movq	_ZN4core3fmt3num3imp54_$LT$impl$u20$core..fmt..Display$u20$for$u20$usize$GT$3fmt17hc77d43acabea5eabE@GOTPCREL(%rip), %rax
	movq	%rax, 512(%rsp)
	movq	504(%rsp), %rcx
	movq	512(%rsp), %rax
	movq	%rcx, 424(%rsp)
	movq	%rax, 432(%rsp)
	leaq	376(%rsp), %rdi
	leaq	.L__unnamed_25(%rip), %rsi
	movl	$1, %r8d
	leaq	424(%rsp), %rcx
	movq	%r8, %rdx
	callq	_ZN4core3fmt9Arguments6new_v117hc1aae150a70a99b7E
	leaq	376(%rsp), %rdi
	callq	*_ZN3std2io5stdio6_print17h5c2f653c9c3347e5E@GOTPCREL(%rip)
	jmp	.LBB85_7
.LBB85_10:
	leaq	32(%rsp), %rdi
	callq	_ZN91_$LT$core..slice..iter..Iter$LT$T$GT$$u20$as$u20$core..iter..traits..iterator..Iterator$GT$4next17h8be353dd35e58801E
	movq	%rax, 48(%rsp)
	movq	48(%rsp), %rdx
	movl	$1, %eax
	xorl	%ecx, %ecx
	cmpq	$0, %rdx
	cmoveq	%rcx, %rax
	cmpq	$0, %rax
	jne	.LBB85_12
	leaq	128(%rsp), %rdi
	leaq	.L__unnamed_26(%rip), %rsi
	movl	$1, %edx
	callq	_ZN4core3fmt9Arguments9new_const17h44bc4ea26c6dca12E
	leaq	128(%rsp), %rdi
	callq	*_ZN3std2io5stdio6_print17h5c2f653c9c3347e5E@GOTPCREL(%rip)
	jmp	.LBB85_1
.LBB85_12:
	movq	48(%rsp), %rax
	movq	%rax, 56(%rsp)
	leaq	56(%rsp), %rax
	movq	%rax, 488(%rsp)
	leaq	_ZN44_$LT$$RF$T$u20$as$u20$core..fmt..Display$GT$3fmt17hae37bc246d0e5b6eE(%rip), %rax
	movq	%rax, 496(%rsp)
	movq	488(%rsp), %rcx
	movq	496(%rsp), %rax
	movq	%rcx, 112(%rsp)
	movq	%rax, 120(%rsp)
	leaq	64(%rsp), %rdi
	leaq	.L__unnamed_27(%rip), %rsi
	movl	$1, %r8d
	leaq	112(%rsp), %rcx
	movq	%r8, %rdx
	callq	_ZN4core3fmt9Arguments6new_v117hc1aae150a70a99b7E
	leaq	64(%rsp), %rdi
	callq	*_ZN3std2io5stdio6_print17h5c2f653c9c3347e5E@GOTPCREL(%rip)
	jmp	.LBB85_10
.Lfunc_end85:
	.size	_ZN4main11print_board17hbea090fa88cfd3c6E, .Lfunc_end85-_ZN4main11print_board17hbea090fa88cfd3c6E
	.cfi_endproc

	.section	.text._ZN4main13is_valid_move17h0baa90338e2f0569E,"ax",@progbits
	.p2align	4, 0x90
	.type	_ZN4main13is_valid_move17h0baa90338e2f0569E,@function
_ZN4main13is_valid_move17h0baa90338e2f0569E:
	.cfi_startproc
	subq	$24, %rsp
	.cfi_def_cfa_offset 32
	movq	%rdi, (%rsp)
	movq	%rsi, 8(%rsp)
	cmpq	$7, %rsi
	jb	.LBB86_2
	movb	$0, 23(%rsp)
	jmp	.LBB86_3
.LBB86_2:
	movq	8(%rsp), %rax
	cmpq	$7, %rax
	setb	%al
	testb	$1, %al
	jne	.LBB86_4
	jmp	.LBB86_5
.LBB86_3:
	movb	23(%rsp), %al
	andb	$1, %al
	movzbl	%al, %eax
	addq	$24, %rsp
	.cfi_def_cfa_offset 8
	retq
.LBB86_4:
	.cfi_def_cfa_offset 32
	movq	(%rsp), %rax
	movq	8(%rsp), %rcx
	cmpl	$32, (%rax,%rcx,4)
	sete	%al
	andb	$1, %al
	movb	%al, 23(%rsp)
	jmp	.LBB86_3
.LBB86_5:
	movq	8(%rsp), %rdi
	leaq	.L__unnamed_28(%rip), %rdx
	movq	_ZN4core9panicking18panic_bounds_check17h9bb22f08a42e1ac8E@GOTPCREL(%rip), %rax
	movl	$7, %esi
	callq	*%rax
.Lfunc_end86:
	.size	_ZN4main13is_valid_move17h0baa90338e2f0569E, .Lfunc_end86-_ZN4main13is_valid_move17h0baa90338e2f0569E
	.cfi_endproc

	.section	.text._ZN4main9make_move17hbd616bfab9e54c3bE,"ax",@progbits
	.p2align	4, 0x90
	.type	_ZN4main9make_move17hbd616bfab9e54c3bE,@function
_ZN4main9make_move17hbd616bfab9e54c3bE:
	.cfi_startproc
	subq	$88, %rsp
	.cfi_def_cfa_offset 96
	movq	%rdi, 16(%rsp)
	movq	%rsi, 24(%rsp)
	movl	%edx, 32(%rsp)
	callq	_ZN4main13is_valid_move17h0baa90338e2f0569E
	testb	$1, %al
	jne	.LBB87_2
	movb	$0, 39(%rsp)
	jmp	.LBB87_3
.LBB87_2:
	movq	$0, 40(%rsp)
	movq	$6, 48(%rsp)
	movq	40(%rsp), %rdi
	movq	48(%rsp), %rsi
	callq	_ZN4core4iter6traits8iterator8Iterator3rev17heca396affb779194E
	movq	%rax, %rdi
	movq	%rdx, %rsi
	callq	_ZN63_$LT$I$u20$as$u20$core..iter..traits..collect..IntoIterator$GT$9into_iter17hab4aaa1de6c35484E
	movq	%rax, 56(%rsp)
	movq	%rdx, 64(%rsp)
	jmp	.LBB87_4
.LBB87_3:
	movb	39(%rsp), %al
	andb	$1, %al
	movzbl	%al, %eax
	addq	$88, %rsp
	.cfi_def_cfa_offset 8
	retq
.LBB87_4:
	.cfi_def_cfa_offset 96
	leaq	56(%rsp), %rdi
	callq	_ZN98_$LT$core..iter..adapters..rev..Rev$LT$I$GT$$u20$as$u20$core..iter..traits..iterator..Iterator$GT$4next17h2330df0c89a6d86aE
	movq	%rax, 72(%rsp)
	movq	%rdx, 80(%rsp)
	cmpq	$0, 72(%rsp)
	jne	.LBB87_6
	movb	$0, 39(%rsp)
	jmp	.LBB87_3
.LBB87_6:
	movq	80(%rsp), %rax
	movq	%rax, 8(%rsp)
	cmpq	$6, %rax
	setb	%al
	testb	$1, %al
	jne	.LBB87_7
	jmp	.LBB87_8
.LBB87_7:
	movq	24(%rsp), %rax
	cmpq	$7, %rax
	setb	%al
	testb	$1, %al
	jne	.LBB87_9
	jmp	.LBB87_10
.LBB87_8:
	movq	8(%rsp), %rdi
	leaq	.L__unnamed_29(%rip), %rdx
	movq	_ZN4core9panicking18panic_bounds_check17h9bb22f08a42e1ac8E@GOTPCREL(%rip), %rax
	movl	$6, %esi
	callq	*%rax
.LBB87_9:
	movq	24(%rsp), %rcx
	movq	16(%rsp), %rax
	movq	8(%rsp), %rdx
	imulq	$28, %rdx, %rdx
	addq	%rdx, %rax
	cmpl	$32, (%rax,%rcx,4)
	je	.LBB87_11
	jmp	.LBB87_4
.LBB87_10:
	movq	24(%rsp), %rdi
	leaq	.L__unnamed_29(%rip), %rdx
	movq	_ZN4core9panicking18panic_bounds_check17h9bb22f08a42e1ac8E@GOTPCREL(%rip), %rax
	movl	$7, %esi
	callq	*%rax
.LBB87_11:
	movq	8(%rsp), %rax
	cmpq	$6, %rax
	setb	%al
	testb	$1, %al
	jne	.LBB87_12
	jmp	.LBB87_13
.LBB87_12:
	movq	24(%rsp), %rax
	cmpq	$7, %rax
	setb	%al
	testb	$1, %al
	jne	.LBB87_14
	jmp	.LBB87_15
.LBB87_13:
	movq	8(%rsp), %rdi
	leaq	.L__unnamed_30(%rip), %rdx
	movq	_ZN4core9panicking18panic_bounds_check17h9bb22f08a42e1ac8E@GOTPCREL(%rip), %rax
	movl	$6, %esi
	callq	*%rax
.LBB87_14:
	movq	24(%rsp), %rcx
	movl	32(%rsp), %edx
	movq	16(%rsp), %rax
	movq	8(%rsp), %rsi
	imulq	$28, %rsi, %rsi
	addq	%rsi, %rax
	movl	%edx, (%rax,%rcx,4)
	movb	$1, 39(%rsp)
	jmp	.LBB87_3
.LBB87_15:
	movq	24(%rsp), %rdi
	leaq	.L__unnamed_30(%rip), %rdx
	movq	_ZN4core9panicking18panic_bounds_check17h9bb22f08a42e1ac8E@GOTPCREL(%rip), %rax
	movl	$7, %esi
	callq	*%rax
.Lfunc_end87:
	.size	_ZN4main9make_move17hbd616bfab9e54c3bE, .Lfunc_end87-_ZN4main9make_move17hbd616bfab9e54c3bE
	.cfi_endproc

	.section	.text._ZN4main15check_direction17hfc505891818a49ffE,"ax",@progbits
	.p2align	4, 0x90
	.type	_ZN4main15check_direction17hfc505891818a49ffE,@function
_ZN4main15check_direction17hfc505891818a49ffE:
	.cfi_startproc
	subq	$152, %rsp
	.cfi_def_cfa_offset 160
	movq	%rdi, 56(%rsp)
	movq	%rsi, 64(%rsp)
	movq	%rdx, 72(%rsp)
	movq	%rcx, 80(%rsp)
	movq	%r8, 88(%rsp)
	movl	%r9d, 96(%rsp)
	movl	$0, 100(%rsp)
	movq	$0, 104(%rsp)
	movq	$4, 112(%rsp)
	movq	104(%rsp), %rdi
	movq	112(%rsp), %rsi
	callq	_ZN63_$LT$I$u20$as$u20$core..iter..traits..collect..IntoIterator$GT$9into_iter17hb28216513bfcd19bE
	movq	%rax, 120(%rsp)
	movq	%rdx, 128(%rsp)
.LBB88_1:
	leaq	120(%rsp), %rdi
	callq	_ZN4core4iter5range101_$LT$impl$u20$core..iter..traits..iterator..Iterator$u20$for$u20$core..ops..range..Range$LT$A$GT$$GT$4next17h6d9562d5a9664e01E
	movq	%rax, 136(%rsp)
	movq	%rdx, 144(%rsp)
	cmpq	$0, 136(%rsp)
	jne	.LBB88_3
.LBB88_2:
	cmpl	$4, 100(%rsp)
	sete	%al
	andb	$1, %al
	movzbl	%al, %eax
	addq	$152, %rsp
	.cfi_def_cfa_offset 8
	retq
.LBB88_3:
	.cfi_def_cfa_offset 160
	movq	80(%rsp), %rcx
	movq	144(%rsp), %rax
	movq	%rax, 40(%rsp)
	imulq	%rcx, %rax
	movq	%rax, 48(%rsp)
	seto	%al
	testb	$1, %al
	jne	.LBB88_5
	movq	48(%rsp), %rcx
	movq	64(%rsp), %rax
	addq	%rcx, %rax
	movq	%rax, 32(%rsp)
	seto	%al
	testb	$1, %al
	jne	.LBB88_7
	jmp	.LBB88_6
.LBB88_5:
	leaq	str.1(%rip), %rdi
	leaq	.L__unnamed_31(%rip), %rdx
	movq	_ZN4core9panicking5panic17h8ddd58dc57c2dc00E@GOTPCREL(%rip), %rax
	movl	$33, %esi
	callq	*%rax
.LBB88_6:
	movq	88(%rsp), %rcx
	movq	40(%rsp), %rax
	imulq	%rcx, %rax
	movq	%rax, 24(%rsp)
	seto	%al
	testb	$1, %al
	jne	.LBB88_9
	jmp	.LBB88_8
.LBB88_7:
	leaq	str.2(%rip), %rdi
	leaq	.L__unnamed_32(%rip), %rdx
	movq	_ZN4core9panicking5panic17h8ddd58dc57c2dc00E@GOTPCREL(%rip), %rax
	movl	$28, %esi
	callq	*%rax
.LBB88_8:
	movq	24(%rsp), %rcx
	movq	72(%rsp), %rax
	addq	%rcx, %rax
	movq	%rax, 16(%rsp)
	seto	%al
	testb	$1, %al
	jne	.LBB88_11
	jmp	.LBB88_10
.LBB88_9:
	leaq	str.1(%rip), %rdi
	leaq	.L__unnamed_33(%rip), %rdx
	movq	_ZN4core9panicking5panic17h8ddd58dc57c2dc00E@GOTPCREL(%rip), %rax
	movl	$33, %esi
	callq	*%rax
.LBB88_10:
	movq	32(%rsp), %rax
	cmpq	$0, %rax
	jge	.LBB88_12
	jmp	.LBB88_2
.LBB88_11:
	leaq	str.2(%rip), %rdi
	leaq	.L__unnamed_34(%rip), %rdx
	movq	_ZN4core9panicking5panic17h8ddd58dc57c2dc00E@GOTPCREL(%rip), %rax
	movl	$28, %esi
	callq	*%rax
.LBB88_12:
	movq	32(%rsp), %rax
	cmpq	$6, %rax
	jge	.LBB88_2
	movq	16(%rsp), %rax
	cmpq	$0, %rax
	jl	.LBB88_2
	movq	16(%rsp), %rax
	cmpq	$7, %rax
	jge	.LBB88_2
	movq	32(%rsp), %rax
	cmpq	$6, %rax
	setb	%al
	testb	$1, %al
	jne	.LBB88_16
	jmp	.LBB88_17
.LBB88_16:
	movq	16(%rsp), %rax
	cmpq	$7, %rax
	setb	%al
	testb	$1, %al
	jne	.LBB88_18
	jmp	.LBB88_19
.LBB88_17:
	movq	32(%rsp), %rdi
	leaq	.L__unnamed_35(%rip), %rdx
	movq	_ZN4core9panicking18panic_bounds_check17h9bb22f08a42e1ac8E@GOTPCREL(%rip), %rax
	movl	$6, %esi
	callq	*%rax
.LBB88_18:
	movq	16(%rsp), %rcx
	movl	96(%rsp), %edx
	movq	56(%rsp), %rax
	movq	32(%rsp), %rsi
	imulq	$28, %rsi, %rsi
	addq	%rsi, %rax
	cmpl	%edx, (%rax,%rcx,4)
	je	.LBB88_20
	jmp	.LBB88_2
.LBB88_19:
	movq	16(%rsp), %rdi
	leaq	.L__unnamed_35(%rip), %rdx
	movq	_ZN4core9panicking18panic_bounds_check17h9bb22f08a42e1ac8E@GOTPCREL(%rip), %rax
	movl	$7, %esi
	callq	*%rax
.LBB88_20:
	movl	100(%rsp), %eax
	incl	%eax
	movl	%eax, 12(%rsp)
	seto	%al
	testb	$1, %al
	jne	.LBB88_22
	movl	12(%rsp), %eax
	movl	%eax, 100(%rsp)
	jmp	.LBB88_1
.LBB88_22:
	leaq	str.2(%rip), %rdi
	leaq	.L__unnamed_36(%rip), %rdx
	movq	_ZN4core9panicking5panic17h8ddd58dc57c2dc00E@GOTPCREL(%rip), %rax
	movl	$28, %esi
	callq	*%rax
.Lfunc_end88:
	.size	_ZN4main15check_direction17hfc505891818a49ffE, .Lfunc_end88-_ZN4main15check_direction17hfc505891818a49ffE
	.cfi_endproc

	.section	.text._ZN4main9check_win17he8e1092025545bb2E,"ax",@progbits
	.p2align	4, 0x90
	.type	_ZN4main9check_win17he8e1092025545bb2E,@function
_ZN4main9check_win17he8e1092025545bb2E:
	.cfi_startproc
	subq	$136, %rsp
	.cfi_def_cfa_offset 144
	movq	%rdi, 24(%rsp)
	movl	%esi, 32(%rsp)
	movq	$0, 40(%rsp)
	movq	$6, 48(%rsp)
	movq	40(%rsp), %rdi
	movq	48(%rsp), %rsi
	callq	_ZN63_$LT$I$u20$as$u20$core..iter..traits..collect..IntoIterator$GT$9into_iter17heb4eadcc8c7e38f4E
	movq	%rax, 56(%rsp)
	movq	%rdx, 64(%rsp)
.LBB89_1:
	leaq	56(%rsp), %rdi
	callq	_ZN4core4iter5range101_$LT$impl$u20$core..iter..traits..iterator..Iterator$u20$for$u20$core..ops..range..Range$LT$A$GT$$GT$4next17hd453836dc16735a2E
	movq	%rax, 72(%rsp)
	movq	%rdx, 80(%rsp)
	cmpq	$0, 72(%rsp)
	jne	.LBB89_3
	movb	$0, 39(%rsp)
	jmp	.LBB89_4
.LBB89_3:
	movq	80(%rsp), %rax
	movq	%rax, 16(%rsp)
	movq	$0, 88(%rsp)
	movq	$7, 96(%rsp)
	movq	88(%rsp), %rdi
	movq	96(%rsp), %rsi
	callq	_ZN63_$LT$I$u20$as$u20$core..iter..traits..collect..IntoIterator$GT$9into_iter17heb4eadcc8c7e38f4E
	movq	%rax, 104(%rsp)
	movq	%rdx, 112(%rsp)
	jmp	.LBB89_5
.LBB89_4:
	movb	39(%rsp), %al
	andb	$1, %al
	movzbl	%al, %eax
	addq	$136, %rsp
	.cfi_def_cfa_offset 8
	retq
.LBB89_5:
	.cfi_def_cfa_offset 144
	leaq	104(%rsp), %rdi
	callq	_ZN4core4iter5range101_$LT$impl$u20$core..iter..traits..iterator..Iterator$u20$for$u20$core..ops..range..Range$LT$A$GT$$GT$4next17hd453836dc16735a2E
	movq	%rax, 120(%rsp)
	movq	%rdx, 128(%rsp)
	cmpq	$0, 120(%rsp)
	je	.LBB89_1
	movq	16(%rsp), %rax
	movq	128(%rsp), %rcx
	movq	%rcx, 8(%rsp)
	cmpq	$6, %rax
	setb	%al
	testb	$1, %al
	jne	.LBB89_7
	jmp	.LBB89_8
.LBB89_7:
	movq	8(%rsp), %rax
	cmpq	$7, %rax
	setb	%al
	testb	$1, %al
	jne	.LBB89_9
	jmp	.LBB89_10
.LBB89_8:
	movq	16(%rsp), %rdi
	leaq	.L__unnamed_37(%rip), %rdx
	movq	_ZN4core9panicking18panic_bounds_check17h9bb22f08a42e1ac8E@GOTPCREL(%rip), %rax
	movl	$6, %esi
	callq	*%rax
.LBB89_9:
	movq	8(%rsp), %rcx
	movl	32(%rsp), %edx
	movq	24(%rsp), %rax
	movq	16(%rsp), %rsi
	imulq	$28, %rsi, %rsi
	addq	%rsi, %rax
	cmpl	%edx, (%rax,%rcx,4)
	je	.LBB89_11
	jmp	.LBB89_5
.LBB89_10:
	movq	8(%rsp), %rdi
	leaq	.L__unnamed_37(%rip), %rdx
	movq	_ZN4core9panicking18panic_bounds_check17h9bb22f08a42e1ac8E@GOTPCREL(%rip), %rax
	movl	$7, %esi
	callq	*%rax
.LBB89_11:
	movl	32(%rsp), %r9d
	movq	8(%rsp), %rdx
	movq	16(%rsp), %rsi
	movq	24(%rsp), %rdi
	xorl	%eax, %eax
	movl	%eax, %ecx
	movl	$1, %r8d
	callq	_ZN4main15check_direction17hfc505891818a49ffE
	testb	$1, %al
	jne	.LBB89_13
	movl	32(%rsp), %r9d
	movq	8(%rsp), %rdx
	movq	16(%rsp), %rsi
	movq	24(%rsp), %rdi
	movl	$1, %ecx
	xorl	%eax, %eax
	movl	%eax, %r8d
	callq	_ZN4main15check_direction17hfc505891818a49ffE
	testb	$1, %al
	jne	.LBB89_13
	jmp	.LBB89_14
.LBB89_13:
	movb	$1, 39(%rsp)
	jmp	.LBB89_4
.LBB89_14:
	movl	32(%rsp), %r9d
	movq	8(%rsp), %rdx
	movq	16(%rsp), %rsi
	movq	24(%rsp), %rdi
	movl	$1, %r8d
	movq	%r8, %rcx
	callq	_ZN4main15check_direction17hfc505891818a49ffE
	testb	$1, %al
	jne	.LBB89_13
	movl	32(%rsp), %r9d
	movq	8(%rsp), %rdx
	movq	16(%rsp), %rsi
	movq	24(%rsp), %rdi
	movl	$1, %ecx
	movq	$-1, %r8
	callq	_ZN4main15check_direction17hfc505891818a49ffE
	testb	$1, %al
	jne	.LBB89_13
	jmp	.LBB89_5
.Lfunc_end89:
	.size	_ZN4main9check_win17he8e1092025545bb2E, .Lfunc_end89-_ZN4main9check_win17he8e1092025545bb2E
	.cfi_endproc

	.section	.text._ZN4main13is_board_full17h980c067e9dd7b23dE,"ax",@progbits
	.p2align	4, 0x90
	.type	_ZN4main13is_board_full17h980c067e9dd7b23dE,@function
_ZN4main13is_board_full17h980c067e9dd7b23dE:
	.cfi_startproc
	subq	$72, %rsp
	.cfi_def_cfa_offset 80
	movq	%rdi, 8(%rsp)
	movq	$0, 24(%rsp)
	movq	$7, 32(%rsp)
	movq	24(%rsp), %rdi
	movq	32(%rsp), %rsi
	callq	_ZN63_$LT$I$u20$as$u20$core..iter..traits..collect..IntoIterator$GT$9into_iter17heb4eadcc8c7e38f4E
	movq	%rax, 40(%rsp)
	movq	%rdx, 48(%rsp)
.LBB90_1:
	leaq	40(%rsp), %rdi
	callq	_ZN4core4iter5range101_$LT$impl$u20$core..iter..traits..iterator..Iterator$u20$for$u20$core..ops..range..Range$LT$A$GT$$GT$4next17hd453836dc16735a2E
	movq	%rax, 56(%rsp)
	movq	%rdx, 64(%rsp)
	cmpq	$0, 56(%rsp)
	jne	.LBB90_3
	movb	$1, 23(%rsp)
	jmp	.LBB90_4
.LBB90_3:
	movq	64(%rsp), %rax
	movq	%rax, (%rsp)
	cmpq	$7, %rax
	setb	%al
	testb	$1, %al
	jne	.LBB90_5
	jmp	.LBB90_6
.LBB90_4:
	movb	23(%rsp), %al
	andb	$1, %al
	movzbl	%al, %eax
	addq	$72, %rsp
	.cfi_def_cfa_offset 8
	retq
.LBB90_5:
	.cfi_def_cfa_offset 80
	movq	8(%rsp), %rax
	movq	(%rsp), %rcx
	cmpl	$32, (%rax,%rcx,4)
	je	.LBB90_7
	jmp	.LBB90_1
.LBB90_6:
	movq	(%rsp), %rdi
	leaq	.L__unnamed_38(%rip), %rdx
	movq	_ZN4core9panicking18panic_bounds_check17h9bb22f08a42e1ac8E@GOTPCREL(%rip), %rax
	movl	$7, %esi
	callq	*%rax
.LBB90_7:
	movb	$0, 23(%rsp)
	jmp	.LBB90_4
.Lfunc_end90:
	.size	_ZN4main13is_board_full17h980c067e9dd7b23dE, .Lfunc_end90-_ZN4main13is_board_full17h980c067e9dd7b23dE
	.cfi_endproc

	.section	.text._ZN4main4main17h8bd578f601f0fa06E,"ax",@progbits
	.p2align	4, 0x90
	.type	_ZN4main4main17h8bd578f601f0fa06E,@function
_ZN4main4main17h8bd578f601f0fa06E:
.Lfunc_begin8:
	.cfi_startproc
	.cfi_personality 155, DW.ref.rust_eh_personality
	.cfi_lsda 27, .Lexception8
	subq	$728, %rsp
	.cfi_def_cfa_offset 736
	leaq	116(%rsp), %rdi
	callq	_ZN4main16initialize_board17h94e2f4cd32497805E
	movl	$88, 284(%rsp)
.LBB91_1:
	leaq	116(%rsp), %rdi
	callq	_ZN4main11print_board17hbea090fa88cfd3c6E
	leaq	284(%rsp), %rax
	movq	%rax, 680(%rsp)
	movq	_ZN43_$LT$char$u20$as$u20$core..fmt..Display$GT$3fmt17hb830de1969c9fc38E@GOTPCREL(%rip), %rax
	movq	%rax, 688(%rsp)
	movq	680(%rsp), %rsi
	movq	688(%rsp), %rdx
	leaq	.L__unnamed_39(%rip), %rax
	movq	%rax, 712(%rsp)
	movq	_ZN4core3fmt3num3imp54_$LT$impl$u20$core..fmt..Display$u20$for$u20$usize$GT$3fmt17hc77d43acabea5eabE@GOTPCREL(%rip), %rax
	movq	%rax, 720(%rsp)
	movq	712(%rsp), %rcx
	movq	720(%rsp), %rax
	movq	%rsi, 336(%rsp)
	movq	%rdx, 344(%rsp)
	movq	%rcx, 352(%rsp)
	movq	%rax, 360(%rsp)
	leaq	.L__unnamed_40(%rip), %rsi
	leaq	288(%rsp), %rdi
	movq	%rdi, 96(%rsp)
	movl	$3, %edx
	leaq	336(%rsp), %rcx
	movl	$2, %r8d
	callq	_ZN4core3fmt9Arguments6new_v117hc1aae150a70a99b7E
	movq	96(%rsp), %rdi
	movq	_ZN3std2io5stdio6_print17h5c2f653c9c3347e5E@GOTPCREL(%rip), %rax
	callq	*%rax
	leaq	368(%rsp), %rdi
	callq	_ZN5alloc6string6String3new17hd262d99b8d83ab53E
.Ltmp46:
	movq	_ZN3std2io5stdio5stdin17h8c974ef3a60924c0E@GOTPCREL(%rip), %rax
	callq	*%rax
.Ltmp47:
	movq	%rax, 104(%rsp)
	jmp	.LBB91_4
.LBB91_2:
.Ltmp85:
	leaq	368(%rsp), %rdi
	callq	_ZN4core3ptr42drop_in_place$LT$alloc..string..String$GT$17hf4922e51796c7b72E
.Ltmp86:
	jmp	.LBB91_40
.LBB91_3:
.Ltmp84:
	movq	%rax, %rcx
	movl	%edx, %eax
	movq	%rcx, 648(%rsp)
	movl	%eax, 656(%rsp)
	jmp	.LBB91_2
.LBB91_4:
	movq	104(%rsp), %rax
	movq	%rax, 392(%rsp)
.Ltmp48:
	movq	_ZN3std2io5stdio5Stdin9read_line17hdb4e3d7cbacc71a9E@GOTPCREL(%rip), %rax
	leaq	392(%rsp), %rdi
	leaq	368(%rsp), %rsi
	callq	*%rax
.Ltmp49:
	movq	%rdx, 80(%rsp)
	movq	%rax, 88(%rsp)
	jmp	.LBB91_5
.LBB91_5:
.Ltmp50:
	movq	80(%rsp), %rsi
	movq	88(%rsp), %rdi
	leaq	.L__unnamed_41(%rip), %rdx
	leaq	.L__unnamed_42(%rip), %r8
	movl	$19, %ecx
	callq	_ZN4core6result19Result$LT$T$C$E$GT$6expect17h7c089fd4fde8d7cbE
.Ltmp51:
	jmp	.LBB91_6
.LBB91_6:
.Ltmp52:
	leaq	368(%rsp), %rdi
	callq	_ZN65_$LT$alloc..string..String$u20$as$u20$core..ops..deref..Deref$GT$5deref17h396ed41519955b79E
.Ltmp53:
	movq	%rdx, 64(%rsp)
	movq	%rax, 72(%rsp)
	jmp	.LBB91_7
.LBB91_7:
.Ltmp54:
	movq	64(%rsp), %rsi
	movq	72(%rsp), %rdi
	callq	_ZN4core3str21_$LT$impl$u20$str$GT$4trim17hac78d3519bb6ad4cE
.Ltmp55:
	movq	%rdx, 48(%rsp)
	movq	%rax, 56(%rsp)
	jmp	.LBB91_8
.LBB91_8:
.Ltmp56:
	movq	48(%rsp), %rdx
	movq	56(%rsp), %rsi
	leaq	400(%rsp), %rdi
	callq	_ZN4core3str21_$LT$impl$u20$str$GT$5parse17h5e65d4620281e29eE
.Ltmp57:
	jmp	.LBB91_9
.LBB91_9:
	movb	400(%rsp), %al
	andb	$1, %al
	movzbl	%al, %eax
	cmpq	$0, %rax
	jne	.LBB91_11
	movq	408(%rsp), %rsi
	movl	284(%rsp), %edx
.Ltmp62:
	leaq	116(%rsp), %rdi
	callq	_ZN4main9make_move17hbd616bfab9e54c3bE
.Ltmp63:
	movb	%al, 47(%rsp)
	jmp	.LBB91_12
.LBB91_11:
	jmp	.LBB91_35
.LBB91_12:
	movb	47(%rsp), %al
	testb	$1, %al
	jne	.LBB91_14
	jmp	.LBB91_13
.LBB91_13:
.Ltmp64:
	leaq	.L__unnamed_43(%rip), %rsi
	leaq	480(%rsp), %rdi
	movl	$1, %edx
	callq	_ZN4core3fmt9Arguments9new_const17h44bc4ea26c6dca12E
.Ltmp65:
	jmp	.LBB91_15
.LBB91_14:
	movl	284(%rsp), %esi
.Ltmp68:
	leaq	116(%rsp), %rdi
	callq	_ZN4main9check_win17he8e1092025545bb2E
.Ltmp69:
	movb	%al, 46(%rsp)
	jmp	.LBB91_18
.LBB91_15:
.Ltmp66:
	movq	_ZN3std2io5stdio6_print17h5c2f653c9c3347e5E@GOTPCREL(%rip), %rax
	leaq	480(%rsp), %rdi
	callq	*%rax
.Ltmp67:
	jmp	.LBB91_16
.LBB91_16:
	jmp	.LBB91_17
.LBB91_17:
	leaq	368(%rsp), %rdi
	callq	_ZN4core3ptr42drop_in_place$LT$alloc..string..String$GT$17hf4922e51796c7b72E
	jmp	.LBB91_1
.LBB91_18:
	movb	46(%rsp), %al
	testb	$1, %al
	jne	.LBB91_20
	jmp	.LBB91_19
.LBB91_19:
.Ltmp70:
	leaq	116(%rsp), %rdi
	callq	_ZN4main13is_board_full17h980c067e9dd7b23dE
.Ltmp71:
	movb	%al, 45(%rsp)
	jmp	.LBB91_21
.LBB91_20:
.Ltmp78:
	leaq	116(%rsp), %rdi
	callq	_ZN4main11print_board17hbea090fa88cfd3c6E
.Ltmp79:
	jmp	.LBB91_31
.LBB91_21:
	movb	45(%rsp), %al
	testb	$1, %al
	jne	.LBB91_23
	jmp	.LBB91_22
.LBB91_22:
	cmpl	$88, 284(%rsp)
	je	.LBB91_25
	jmp	.LBB91_24
.LBB91_23:
.Ltmp72:
	leaq	116(%rsp), %rdi
	callq	_ZN4main11print_board17hbea090fa88cfd3c6E
.Ltmp73:
	jmp	.LBB91_27
.LBB91_24:
	movl	$88, 644(%rsp)
	jmp	.LBB91_26
.LBB91_25:
	movl	$79, 644(%rsp)
.LBB91_26:
	movl	644(%rsp), %eax
	movl	%eax, 284(%rsp)
	leaq	368(%rsp), %rdi
	callq	_ZN4core3ptr42drop_in_place$LT$alloc..string..String$GT$17hf4922e51796c7b72E
	jmp	.LBB91_1
.LBB91_27:
.Ltmp74:
	leaq	.L__unnamed_44(%rip), %rsi
	leaq	592(%rsp), %rdi
	movl	$1, %edx
	callq	_ZN4core3fmt9Arguments9new_const17h44bc4ea26c6dca12E
.Ltmp75:
	jmp	.LBB91_28
.LBB91_28:
.Ltmp76:
	movq	_ZN3std2io5stdio6_print17h5c2f653c9c3347e5E@GOTPCREL(%rip), %rax
	leaq	592(%rsp), %rdi
	callq	*%rax
.Ltmp77:
	jmp	.LBB91_29
.LBB91_29:
	jmp	.LBB91_30
.LBB91_30:
	leaq	368(%rsp), %rdi
	callq	_ZN4core3ptr42drop_in_place$LT$alloc..string..String$GT$17hf4922e51796c7b72E
	addq	$728, %rsp
	.cfi_def_cfa_offset 8
	retq
.LBB91_31:
	.cfi_def_cfa_offset 736
	leaq	284(%rsp), %rax
	movq	%rax, 664(%rsp)
	movq	_ZN43_$LT$char$u20$as$u20$core..fmt..Display$GT$3fmt17hb830de1969c9fc38E@GOTPCREL(%rip), %rax
	movq	%rax, 672(%rsp)
	movq	664(%rsp), %rax
	movq	%rax, 24(%rsp)
	movq	672(%rsp), %rax
	movq	%rax, 32(%rsp)
	movq	32(%rsp), %rax
	movq	24(%rsp), %rcx
	movq	%rcx, 576(%rsp)
	movq	%rax, 584(%rsp)
.Ltmp80:
	leaq	.L__unnamed_45(%rip), %rsi
	leaq	528(%rsp), %rdi
	movl	$2, %edx
	leaq	576(%rsp), %rcx
	movl	$1, %r8d
	callq	_ZN4core3fmt9Arguments6new_v117hc1aae150a70a99b7E
.Ltmp81:
	jmp	.LBB91_33
.LBB91_33:
.Ltmp82:
	movq	_ZN3std2io5stdio6_print17h5c2f653c9c3347e5E@GOTPCREL(%rip), %rax
	leaq	528(%rsp), %rdi
	callq	*%rax
.Ltmp83:
	jmp	.LBB91_34
.LBB91_34:
	jmp	.LBB91_30
.LBB91_35:
	leaq	.L__unnamed_39(%rip), %rax
	movq	%rax, 696(%rsp)
	movq	_ZN4core3fmt3num3imp54_$LT$impl$u20$core..fmt..Display$u20$for$u20$usize$GT$3fmt17hc77d43acabea5eabE@GOTPCREL(%rip), %rax
	movq	%rax, 704(%rsp)
	movq	696(%rsp), %rax
	movq	%rax, 8(%rsp)
	movq	704(%rsp), %rax
	movq	%rax, 16(%rsp)
	movq	16(%rsp), %rax
	movq	8(%rsp), %rcx
	movq	%rcx, 464(%rsp)
	movq	%rax, 472(%rsp)
.Ltmp58:
	leaq	.L__unnamed_46(%rip), %rsi
	leaq	416(%rsp), %rdi
	movl	$2, %edx
	leaq	464(%rsp), %rcx
	movl	$1, %r8d
	callq	_ZN4core3fmt9Arguments6new_v117hc1aae150a70a99b7E
.Ltmp59:
	jmp	.LBB91_37
.LBB91_37:
.Ltmp60:
	movq	_ZN3std2io5stdio6_print17h5c2f653c9c3347e5E@GOTPCREL(%rip), %rax
	leaq	416(%rsp), %rdi
	callq	*%rax
.Ltmp61:
	jmp	.LBB91_38
.LBB91_38:
	jmp	.LBB91_17
.LBB91_39:
.Ltmp87:
	movq	_ZN4core9panicking16panic_in_cleanup17hc8e2b17e1b6d1381E@GOTPCREL(%rip), %rax
	callq	*%rax
.LBB91_40:
	movq	648(%rsp), %rdi
	callq	_Unwind_Resume@PLT
.Lfunc_end91:
	.size	_ZN4main4main17h8bd578f601f0fa06E, .Lfunc_end91-_ZN4main4main17h8bd578f601f0fa06E
	.cfi_endproc
	.section	.gcc_except_table._ZN4main4main17h8bd578f601f0fa06E,"a",@progbits
	.p2align	2, 0x0
GCC_except_table91:
.Lexception8:
	.byte	255
	.byte	155
	.uleb128 .Lttbase5-.Lttbaseref5
.Lttbaseref5:
	.byte	1
	.uleb128 .Lcst_end8-.Lcst_begin8
.Lcst_begin8:
	.uleb128 .Lfunc_begin8-.Lfunc_begin8
	.uleb128 .Ltmp46-.Lfunc_begin8
	.byte	0
	.byte	0
	.uleb128 .Ltmp46-.Lfunc_begin8
	.uleb128 .Ltmp47-.Ltmp46
	.uleb128 .Ltmp84-.Lfunc_begin8
	.byte	0
	.uleb128 .Ltmp85-.Lfunc_begin8
	.uleb128 .Ltmp86-.Ltmp85
	.uleb128 .Ltmp87-.Lfunc_begin8
	.byte	1
	.uleb128 .Ltmp48-.Lfunc_begin8
	.uleb128 .Ltmp67-.Ltmp48
	.uleb128 .Ltmp84-.Lfunc_begin8
	.byte	0
	.uleb128 .Ltmp67-.Lfunc_begin8
	.uleb128 .Ltmp70-.Ltmp67
	.byte	0
	.byte	0
	.uleb128 .Ltmp70-.Lfunc_begin8
	.uleb128 .Ltmp73-.Ltmp70
	.uleb128 .Ltmp84-.Lfunc_begin8
	.byte	0
	.uleb128 .Ltmp73-.Lfunc_begin8
	.uleb128 .Ltmp74-.Ltmp73
	.byte	0
	.byte	0
	.uleb128 .Ltmp74-.Lfunc_begin8
	.uleb128 .Ltmp77-.Ltmp74
	.uleb128 .Ltmp84-.Lfunc_begin8
	.byte	0
	.uleb128 .Ltmp77-.Lfunc_begin8
	.uleb128 .Ltmp80-.Ltmp77
	.byte	0
	.byte	0
	.uleb128 .Ltmp80-.Lfunc_begin8
	.uleb128 .Ltmp61-.Ltmp80
	.uleb128 .Ltmp84-.Lfunc_begin8
	.byte	0
	.uleb128 .Ltmp61-.Lfunc_begin8
	.uleb128 .Lfunc_end91-.Ltmp61
	.byte	0
	.byte	0
.Lcst_end8:
	.byte	127
	.byte	0
	.p2align	2, 0x0
.Lttbase5:
	.byte	0
	.p2align	2, 0x0

	.section	.text.main,"ax",@progbits
	.globl	main
	.p2align	4, 0x90
	.type	main,@function
main:
	.cfi_startproc
	pushq	%rax
	.cfi_def_cfa_offset 16
	movq	%rsi, %rdx
	movslq	%edi, %rsi
	leaq	_ZN4main4main17h8bd578f601f0fa06E(%rip), %rdi
	xorl	%ecx, %ecx
	callq	_ZN3std2rt10lang_start17hec1f1a6eabee3f1fE
	popq	%rcx
	.cfi_def_cfa_offset 8
	retq
.Lfunc_end92:
	.size	main, .Lfunc_end92-main
	.cfi_endproc

	.type	.L__unnamed_1,@object
	.section	.rodata.cst16,"aM",@progbits,16
	.p2align	3, 0x0
.L__unnamed_1:
	.zero	8
	.asciz	"\000\000\021"
	.zero	4
	.size	.L__unnamed_1, 16

	.type	.L__unnamed_2,@object
	.section	.rodata..L__unnamed_2,"a",@progbits
.L__unnamed_2:
	.ascii	"internal error: entered unreachable code"
	.size	.L__unnamed_2, 40

	.type	.L__unnamed_47,@object
	.section	.rodata..L__unnamed_47,"a",@progbits
.L__unnamed_47:
	.ascii	"/rustc/9b00956e56009bab2aa15d7bff10916599e3d6d6/library/std/src/io/error/repr_bitpacked.rs"
	.size	.L__unnamed_47, 90

	.type	.L__unnamed_3,@object
	.section	.data.rel.ro..L__unnamed_3,"aw",@progbits
	.p2align	3, 0x0
.L__unnamed_3:
	.quad	.L__unnamed_47
	.asciz	"Z\000\000\000\000\000\000\000\035\001\000\000\r\000\000"
	.size	.L__unnamed_3, 24

	.type	.L__unnamed_4,@object
	.section	.data.rel.ro..L__unnamed_4,"aw",@progbits
	.p2align	3, 0x0
.L__unnamed_4:
	.quad	_ZN4core3ptr85drop_in_place$LT$std..rt..lang_start$LT$$LP$$RP$$GT$..$u7b$$u7b$closure$u7d$$u7d$$GT$17hb096a4bc53081766E
	.asciz	"\b\000\000\000\000\000\000\000\b\000\000\000\000\000\000"
	.quad	_ZN4core3ops8function6FnOnce40call_once$u7b$$u7b$vtable.shim$u7d$$u7d$17h1e7154750d3da721E
	.quad	_ZN3std2rt10lang_start28_$u7b$$u7b$closure$u7d$$u7d$17h65457686beb1758fE
	.quad	_ZN3std2rt10lang_start28_$u7b$$u7b$closure$u7d$$u7d$17h65457686beb1758fE
	.size	.L__unnamed_4, 48

	.type	.L__unnamed_5,@object
	.section	.rodata.cst16,"aM",@progbits,16
	.p2align	3, 0x0
.L__unnamed_5:
	.zero	8
	.zero	8
	.size	.L__unnamed_5, 16

	.type	.L__unnamed_48,@object
	.section	.rodata..L__unnamed_48,"a",@progbits
.L__unnamed_48:
	.ascii	"is_aligned_to: align is not a power-of-two"
	.size	.L__unnamed_48, 42

	.type	.L__unnamed_6,@object
	.section	.data.rel.ro..L__unnamed_6,"aw",@progbits
	.p2align	3, 0x0
.L__unnamed_6:
	.quad	.L__unnamed_48
	.asciz	"*\000\000\000\000\000\000"
	.size	.L__unnamed_6, 16

	.type	.L__unnamed_7,@object
	.section	.rodata..L__unnamed_7,"a",@progbits
	.p2align	3, 0x0
.L__unnamed_7:
	.size	.L__unnamed_7, 0

	.type	.L__unnamed_49,@object
	.section	.rodata..L__unnamed_49,"a",@progbits
.L__unnamed_49:
	.ascii	"/rustc/9b00956e56009bab2aa15d7bff10916599e3d6d6/library/core/src/ptr/const_ptr.rs"
	.size	.L__unnamed_49, 81

	.type	.L__unnamed_8,@object
	.section	.data.rel.ro..L__unnamed_8,"aw",@progbits
	.p2align	3, 0x0
.L__unnamed_8:
	.quad	.L__unnamed_49
	.asciz	"Q\000\000\000\000\000\000\000b\006\000\000\r\000\000"
	.size	.L__unnamed_8, 24

	.type	.L__unnamed_50,@object
	.section	.rodata..L__unnamed_50,"a",@progbits
.L__unnamed_50:
	.ascii	"invalid args"
	.size	.L__unnamed_50, 12

	.type	.L__unnamed_9,@object
	.section	.data.rel.ro..L__unnamed_9,"aw",@progbits
	.p2align	3, 0x0
.L__unnamed_9:
	.quad	.L__unnamed_50
	.asciz	"\f\000\000\000\000\000\000"
	.size	.L__unnamed_9, 16

	.type	.L__unnamed_51,@object
	.section	.rodata..L__unnamed_51,"a",@progbits
.L__unnamed_51:
	.ascii	"/rustc/9b00956e56009bab2aa15d7bff10916599e3d6d6/library/core/src/fmt/mod.rs"
	.size	.L__unnamed_51, 75

	.type	.L__unnamed_10,@object
	.section	.data.rel.ro..L__unnamed_10,"aw",@progbits
	.p2align	3, 0x0
.L__unnamed_10:
	.quad	.L__unnamed_51
	.asciz	"K\000\000\000\000\000\000\000U\001\000\000\r\000\000"
	.size	.L__unnamed_10, 24

	.type	.L__unnamed_11,@object
	.section	.data.rel.ro..L__unnamed_11,"aw",@progbits
	.p2align	3, 0x0
.L__unnamed_11:
	.quad	.L__unnamed_51
	.asciz	"K\000\000\000\000\000\000\000K\001\000\000\r\000\000"
	.size	.L__unnamed_11, 24

	.type	.L__unnamed_12,@object
	.section	.rodata..L__unnamed_12,"a",@progbits
.L__unnamed_12:
	.ascii	"unsafe precondition(s) violated: NonNull::new_unchecked requires that the pointer is non-null"
	.size	.L__unnamed_12, 93

	.type	.L__unnamed_52,@object
	.section	.rodata..L__unnamed_52,"a",@progbits
.L__unnamed_52:
	.ascii	"assertion failed: 0 < pointee_size && pointee_size <= isize::MAX as usize"
	.size	.L__unnamed_52, 73

	.type	.L__unnamed_53,@object
	.section	.data.rel.ro..L__unnamed_53,"aw",@progbits
	.p2align	3, 0x0
.L__unnamed_53:
	.quad	.L__unnamed_49
	.asciz	"Q\000\000\000\000\000\000\000H\003\000\000\t\000\000"
	.size	.L__unnamed_53, 24

	.type	.L__unnamed_13,@object
	.section	.rodata..L__unnamed_13,"a",@progbits
.L__unnamed_13:
	.ascii	"unsafe precondition(s) violated: ptr::sub_ptr requires `self >= origin`"
	.size	.L__unnamed_13, 71

	.type	.L__unnamed_14,@object
	.section	.rodata.cst8,"aM",@progbits,8
	.p2align	2, 0x0
.L__unnamed_14:
	.zero	4
	.zero	4
	.size	.L__unnamed_14, 8

	.type	.L__unnamed_15,@object
	.section	.rodata..L__unnamed_15,"a",@progbits
.L__unnamed_15:
	.ascii	"unsafe precondition(s) violated: str::get_unchecked requires that the range is within the string slice"
	.size	.L__unnamed_15, 102

	.type	.L__unnamed_16,@object
	.section	.rodata..L__unnamed_16,"a",@progbits
.L__unnamed_16:
	.ascii	"unsafe precondition(s) violated: invalid value for `char`"
	.size	.L__unnamed_16, 57

	.type	.L__unnamed_17,@object
	.section	.rodata..L__unnamed_17,"a",@progbits
.L__unnamed_17:
	.ascii	"unsafe precondition(s) violated: hint::unreachable_unchecked must never be reached"
	.size	.L__unnamed_17, 82

	.type	.L__unnamed_54,@object
	.section	.rodata..L__unnamed_54,"a",@progbits
.L__unnamed_54:
	.ascii	"/rustc/9b00956e56009bab2aa15d7bff10916599e3d6d6/library/core/src/intrinsics.rs"
	.size	.L__unnamed_54, 78

	.type	.L__unnamed_19,@object
	.section	.data.rel.ro..L__unnamed_19,"aw",@progbits
	.p2align	3, 0x0
.L__unnamed_19:
	.quad	.L__unnamed_54
	.asciz	"N\000\000\000\000\000\000\000\n\013\000\0006\000\000"
	.size	.L__unnamed_19, 24

	.type	str.0,@object
	.section	.rodata.str.0,"a",@progbits
	.p2align	4, 0x0
str.0:
	.ascii	"attempt to divide by zero"
	.size	str.0, 25

	.type	.L__unnamed_18,@object
	.section	.rodata..L__unnamed_18,"a",@progbits
.L__unnamed_18:
	.ascii	"unsafe precondition(s) violated: slice::from_raw_parts requires the pointer to be aligned and non-null, and the total size of the slice not to exceed `isize::MAX`"
	.size	.L__unnamed_18, 162

	.type	.L__unnamed_20,@object
	.section	.data.rel.ro..L__unnamed_20,"aw",@progbits
	.p2align	3, 0x0
.L__unnamed_20:
	.quad	_ZN4core3ptr42drop_in_place$LT$std..io..error..Error$GT$17he3e7eb901fd8dfc5E
	.asciz	"\b\000\000\000\000\000\000\000\b\000\000\000\000\000\000"
	.quad	_ZN58_$LT$std..io..error..Error$u20$as$u20$core..fmt..Debug$GT$3fmt17h1c00d9c762d98b08E
	.size	.L__unnamed_20, 32

	.type	.L__unnamed_55,@object
	.section	.rodata..L__unnamed_55,"a",@progbits
.L__unnamed_55:
	.ascii	"/rustc/9b00956e56009bab2aa15d7bff10916599e3d6d6/library/core/src/unicode/unicode_data.rs"
	.size	.L__unnamed_55, 88

	.type	.L__unnamed_21,@object
	.section	.data.rel.ro..L__unnamed_21,"aw",@progbits
	.p2align	3, 0x0
.L__unnamed_21:
	.quad	.L__unnamed_55
	.asciz	"X\000\000\000\000\000\000\000<\002\000\000\022\000\000"
	.size	.L__unnamed_21, 24

	.type	.L__unnamed_22,@object
	.section	.data.rel.ro..L__unnamed_22,"aw",@progbits
	.p2align	3, 0x0
.L__unnamed_22:
	.quad	.L__unnamed_55
	.asciz	"X\000\000\000\000\000\000\000>\002\000\000\023\000\000"
	.size	.L__unnamed_22, 24

	.type	.L__unnamed_56,@object
	.section	.rodata..L__unnamed_56,"a",@progbits
.L__unnamed_56:
	.byte	10
	.size	.L__unnamed_56, 1

	.type	.L__unnamed_23,@object
	.section	.data.rel.ro..L__unnamed_23,"aw",@progbits
	.p2align	3, 0x0
.L__unnamed_23:
	.quad	.L__unnamed_56
	.asciz	"\001\000\000\000\000\000\000"
	.size	.L__unnamed_23, 16

	.type	.L__unnamed_57,@object
	.section	.rodata..L__unnamed_57,"a",@progbits
.L__unnamed_57:
	.zero	2,32
	.size	.L__unnamed_57, 2

	.type	.L__unnamed_25,@object
	.section	.data.rel.ro..L__unnamed_25,"aw",@progbits
	.p2align	3, 0x0
.L__unnamed_25:
	.quad	.L__unnamed_57
	.asciz	"\002\000\000\000\000\000\000"
	.size	.L__unnamed_25, 16

	.type	.L__unnamed_58,@object
	.section	.rodata..L__unnamed_58,"a",@progbits
.L__unnamed_58:
	.zero	3,45
	.size	.L__unnamed_58, 3

	.type	.L__unnamed_24,@object
	.section	.data.rel.ro..L__unnamed_24,"aw",@progbits
	.p2align	3, 0x0
.L__unnamed_24:
	.quad	.L__unnamed_58
	.asciz	"\003\000\000\000\000\000\000"
	.size	.L__unnamed_24, 16

	.type	.L__unnamed_59,@object
	.section	.rodata..L__unnamed_59,"a",@progbits
.L__unnamed_59:
	.ascii	"|\n"
	.size	.L__unnamed_59, 2

	.type	.L__unnamed_26,@object
	.section	.data.rel.ro..L__unnamed_26,"aw",@progbits
	.p2align	3, 0x0
.L__unnamed_26:
	.quad	.L__unnamed_59
	.asciz	"\002\000\000\000\000\000\000"
	.size	.L__unnamed_26, 16

	.type	.L__unnamed_60,@object
	.section	.rodata..L__unnamed_60,"a",@progbits
.L__unnamed_60:
	.ascii	"| "
	.size	.L__unnamed_60, 2

	.type	.L__unnamed_27,@object
	.section	.data.rel.ro..L__unnamed_27,"aw",@progbits
	.p2align	3, 0x0
.L__unnamed_27:
	.quad	.L__unnamed_60
	.asciz	"\002\000\000\000\000\000\000"
	.size	.L__unnamed_27, 16

	.type	.L__unnamed_61,@object
	.section	.rodata..L__unnamed_61,"a",@progbits
.L__unnamed_61:
	.ascii	"main.rs"
	.size	.L__unnamed_61, 7

	.type	.L__unnamed_28,@object
	.section	.data.rel.ro..L__unnamed_28,"aw",@progbits
	.p2align	3, 0x0
.L__unnamed_28:
	.quad	.L__unnamed_61
	.asciz	"\007\000\000\000\000\000\000\000!\000\000\000\023\000\000"
	.size	.L__unnamed_28, 24

	.type	.L__unnamed_29,@object
	.section	.data.rel.ro..L__unnamed_29,"aw",@progbits
	.p2align	3, 0x0
.L__unnamed_29:
	.quad	.L__unnamed_61
	.asciz	"\007\000\000\000\000\000\000\000*\000\000\000\f\000\000"
	.size	.L__unnamed_29, 24

	.type	.L__unnamed_30,@object
	.section	.data.rel.ro..L__unnamed_30,"aw",@progbits
	.p2align	3, 0x0
.L__unnamed_30:
	.quad	.L__unnamed_61
	.asciz	"\007\000\000\000\000\000\000\000+\000\000\000\r\000\000"
	.size	.L__unnamed_30, 24

	.type	.L__unnamed_31,@object
	.section	.data.rel.ro..L__unnamed_31,"aw",@progbits
	.p2align	3, 0x0
.L__unnamed_31:
	.quad	.L__unnamed_61
	.asciz	"\007\000\000\000\000\000\000\0005\000\000\000 \000\000"
	.size	.L__unnamed_31, 24

	.type	str.1,@object
	.section	.rodata.str.1,"a",@progbits
	.p2align	4, 0x0
str.1:
	.ascii	"attempt to multiply with overflow"
	.size	str.1, 33

	.type	.L__unnamed_32,@object
	.section	.data.rel.ro..L__unnamed_32,"aw",@progbits
	.p2align	3, 0x0
.L__unnamed_32:
	.quad	.L__unnamed_61
	.asciz	"\007\000\000\000\000\000\000\0005\000\000\000\021\000\000"
	.size	.L__unnamed_32, 24

	.type	str.2,@object
	.section	.rodata.str.2,"a",@progbits
	.p2align	4, 0x0
str.2:
	.ascii	"attempt to add with overflow"
	.size	str.2, 28

	.type	.L__unnamed_33,@object
	.section	.data.rel.ro..L__unnamed_33,"aw",@progbits
	.p2align	3, 0x0
.L__unnamed_33:
	.quad	.L__unnamed_61
	.asciz	"\007\000\000\000\000\000\000\0006\000\000\000 \000\000"
	.size	.L__unnamed_33, 24

	.type	.L__unnamed_34,@object
	.section	.data.rel.ro..L__unnamed_34,"aw",@progbits
	.p2align	3, 0x0
.L__unnamed_34:
	.quad	.L__unnamed_61
	.asciz	"\007\000\000\000\000\000\000\0006\000\000\000\021\000\000"
	.size	.L__unnamed_34, 24

	.type	.L__unnamed_35,@object
	.section	.data.rel.ro..L__unnamed_35,"aw",@progbits
	.p2align	3, 0x0
.L__unnamed_35:
	.quad	.L__unnamed_61
	.asciz	"\007\000\000\000\000\000\000\0007\000\000\000J\000\000"
	.size	.L__unnamed_35, 24

	.type	.L__unnamed_36,@object
	.section	.data.rel.ro..L__unnamed_36,"aw",@progbits
	.p2align	3, 0x0
.L__unnamed_36:
	.quad	.L__unnamed_61
	.asciz	"\007\000\000\000\000\000\000\0008\000\000\000\r\000\000"
	.size	.L__unnamed_36, 24

	.type	.L__unnamed_37,@object
	.section	.data.rel.ro..L__unnamed_37,"aw",@progbits
	.p2align	3, 0x0
.L__unnamed_37:
	.quad	.L__unnamed_61
	.asciz	"\007\000\000\000\000\000\000\000C\000\000\000\020\000\000"
	.size	.L__unnamed_37, 24

	.type	.L__unnamed_38,@object
	.section	.data.rel.ro..L__unnamed_38,"aw",@progbits
	.p2align	3, 0x0
.L__unnamed_38:
	.quad	.L__unnamed_61
	.asciz	"\007\000\000\000\000\000\000\000R\000\000\000\f\000\000"
	.size	.L__unnamed_38, 24

	.type	.L__unnamed_62,@object
	.section	.rodata..L__unnamed_62,"a",@progbits
.L__unnamed_62:
	.ascii	"Player "
	.size	.L__unnamed_62, 7

	.type	.L__unnamed_63,@object
	.section	.rodata..L__unnamed_63,"a",@progbits
.L__unnamed_63:
	.ascii	", enter column (0-"
	.size	.L__unnamed_63, 18

	.type	.L__unnamed_64,@object
	.section	.rodata.cst4,"aM",@progbits,4
.L__unnamed_64:
	.ascii	"): \n"
	.size	.L__unnamed_64, 4

	.type	.L__unnamed_40,@object
	.section	.data.rel.ro..L__unnamed_40,"aw",@progbits
	.p2align	3, 0x0
.L__unnamed_40:
	.quad	.L__unnamed_62
	.asciz	"\007\000\000\000\000\000\000"
	.quad	.L__unnamed_63
	.asciz	"\022\000\000\000\000\000\000"
	.quad	.L__unnamed_64
	.asciz	"\004\000\000\000\000\000\000"
	.size	.L__unnamed_40, 48

	.type	.L__unnamed_39,@object
	.section	.rodata.cst8,"aM",@progbits,8
	.p2align	3, 0x0
.L__unnamed_39:
	.asciz	"\006\000\000\000\000\000\000"
	.size	.L__unnamed_39, 8

	.type	.L__unnamed_41,@object
	.section	.rodata..L__unnamed_41,"a",@progbits
.L__unnamed_41:
	.ascii	"Failed to read line"
	.size	.L__unnamed_41, 19

	.type	.L__unnamed_42,@object
	.section	.data.rel.ro..L__unnamed_42,"aw",@progbits
	.p2align	3, 0x0
.L__unnamed_42:
	.quad	.L__unnamed_61
	.asciz	"\007\000\000\000\000\000\000\000b\000\000\000+\000\000"
	.size	.L__unnamed_42, 24

	.type	.L__unnamed_65,@object
	.section	.rodata..L__unnamed_65,"a",@progbits
.L__unnamed_65:
	.ascii	"Invalid move. Try again.\n"
	.size	.L__unnamed_65, 25

	.type	.L__unnamed_43,@object
	.section	.data.rel.ro..L__unnamed_43,"aw",@progbits
	.p2align	3, 0x0
.L__unnamed_43:
	.quad	.L__unnamed_65
	.asciz	"\031\000\000\000\000\000\000"
	.size	.L__unnamed_43, 16

	.type	.L__unnamed_66,@object
	.section	.rodata..L__unnamed_66,"a",@progbits
.L__unnamed_66:
	.ascii	"The game is a draw!\n"
	.size	.L__unnamed_66, 20

	.type	.L__unnamed_44,@object
	.section	.data.rel.ro..L__unnamed_44,"aw",@progbits
	.p2align	3, 0x0
.L__unnamed_44:
	.quad	.L__unnamed_66
	.asciz	"\024\000\000\000\000\000\000"
	.size	.L__unnamed_44, 16

	.type	.L__unnamed_67,@object
	.section	.rodata..L__unnamed_67,"a",@progbits
.L__unnamed_67:
	.ascii	" wins!\n"
	.size	.L__unnamed_67, 7

	.type	.L__unnamed_45,@object
	.section	.data.rel.ro..L__unnamed_45,"aw",@progbits
	.p2align	3, 0x0
.L__unnamed_45:
	.quad	.L__unnamed_62
	.asciz	"\007\000\000\000\000\000\000"
	.quad	.L__unnamed_67
	.asciz	"\007\000\000\000\000\000\000"
	.size	.L__unnamed_45, 32

	.type	.L__unnamed_68,@object
	.section	.rodata..L__unnamed_68,"a",@progbits
.L__unnamed_68:
	.ascii	"Invalid input. Please enter a number between 0 and "
	.size	.L__unnamed_68, 51

	.type	.L__unnamed_69,@object
	.section	.rodata..L__unnamed_69,"a",@progbits
.L__unnamed_69:
	.ascii	".\n"
	.size	.L__unnamed_69, 2

	.type	.L__unnamed_46,@object
	.section	.data.rel.ro..L__unnamed_46,"aw",@progbits
	.p2align	3, 0x0
.L__unnamed_46:
	.quad	.L__unnamed_68
	.asciz	"3\000\000\000\000\000\000"
	.quad	.L__unnamed_69
	.asciz	"\002\000\000\000\000\000\000"
	.size	.L__unnamed_46, 32

	.hidden	DW.ref.rust_eh_personality
	.weak	DW.ref.rust_eh_personality
	.section	.data.DW.ref.rust_eh_personality,"awG",@progbits,DW.ref.rust_eh_personality,comdat
	.p2align	3, 0x0
	.type	DW.ref.rust_eh_personality,@object
	.size	DW.ref.rust_eh_personality, 8
DW.ref.rust_eh_personality:
	.quad	rust_eh_personality
	.ident	"rustc version 1.78.0 (9b00956e5 2024-04-29)"
	.section	".note.GNU-stack","",@progbits
